
ctarget:     file format elf64-x86-64


Disassembly of section .init:

0000000000400c48 <_init>:
  400c48:	48 83 ec 08          	sub    $0x8,%rsp
  400c4c:	48 8b 05 a5 43 20 00 	mov    0x2043a5(%rip),%rax        # 604ff8 <__gmon_start__>
  400c53:	48 85 c0             	test   %rax,%rax
  400c56:	74 05                	je     400c5d <_init+0x15>
  400c58:	e8 43 02 00 00       	callq  400ea0 <__gmon_start__@plt>
  400c5d:	48 83 c4 08          	add    $0x8,%rsp
  400c61:	c3                   	retq   

Disassembly of section .plt:

0000000000400c70 <.plt>:
  400c70:	ff 35 92 43 20 00    	pushq  0x204392(%rip)        # 605008 <_GLOBAL_OFFSET_TABLE_+0x8>
  400c76:	ff 25 94 43 20 00    	jmpq   *0x204394(%rip)        # 605010 <_GLOBAL_OFFSET_TABLE_+0x10>
  400c7c:	0f 1f 40 00          	nopl   0x0(%rax)

0000000000400c80 <strcasecmp@plt>:
  400c80:	ff 25 92 43 20 00    	jmpq   *0x204392(%rip)        # 605018 <strcasecmp@GLIBC_2.2.5>
  400c86:	68 00 00 00 00       	pushq  $0x0
  400c8b:	e9 e0 ff ff ff       	jmpq   400c70 <.plt>

0000000000400c90 <__errno_location@plt>:
  400c90:	ff 25 8a 43 20 00    	jmpq   *0x20438a(%rip)        # 605020 <__errno_location@GLIBC_2.2.5>
  400c96:	68 01 00 00 00       	pushq  $0x1
  400c9b:	e9 d0 ff ff ff       	jmpq   400c70 <.plt>

0000000000400ca0 <srandom@plt>:
  400ca0:	ff 25 82 43 20 00    	jmpq   *0x204382(%rip)        # 605028 <srandom@GLIBC_2.2.5>
  400ca6:	68 02 00 00 00       	pushq  $0x2
  400cab:	e9 c0 ff ff ff       	jmpq   400c70 <.plt>

0000000000400cb0 <strncmp@plt>:
  400cb0:	ff 25 7a 43 20 00    	jmpq   *0x20437a(%rip)        # 605030 <strncmp@GLIBC_2.2.5>
  400cb6:	68 03 00 00 00       	pushq  $0x3
  400cbb:	e9 b0 ff ff ff       	jmpq   400c70 <.plt>

0000000000400cc0 <strcpy@plt>:
  400cc0:	ff 25 72 43 20 00    	jmpq   *0x204372(%rip)        # 605038 <strcpy@GLIBC_2.2.5>
  400cc6:	68 04 00 00 00       	pushq  $0x4
  400ccb:	e9 a0 ff ff ff       	jmpq   400c70 <.plt>

0000000000400cd0 <puts@plt>:
  400cd0:	ff 25 6a 43 20 00    	jmpq   *0x20436a(%rip)        # 605040 <puts@GLIBC_2.2.5>
  400cd6:	68 05 00 00 00       	pushq  $0x5
  400cdb:	e9 90 ff ff ff       	jmpq   400c70 <.plt>

0000000000400ce0 <write@plt>:
  400ce0:	ff 25 62 43 20 00    	jmpq   *0x204362(%rip)        # 605048 <write@GLIBC_2.2.5>
  400ce6:	68 06 00 00 00       	pushq  $0x6
  400ceb:	e9 80 ff ff ff       	jmpq   400c70 <.plt>

0000000000400cf0 <__stack_chk_fail@plt>:
  400cf0:	ff 25 5a 43 20 00    	jmpq   *0x20435a(%rip)        # 605050 <__stack_chk_fail@GLIBC_2.4>
  400cf6:	68 07 00 00 00       	pushq  $0x7
  400cfb:	e9 70 ff ff ff       	jmpq   400c70 <.plt>

0000000000400d00 <mmap@plt>:
  400d00:	ff 25 52 43 20 00    	jmpq   *0x204352(%rip)        # 605058 <mmap@GLIBC_2.2.5>
  400d06:	68 08 00 00 00       	pushq  $0x8
  400d0b:	e9 60 ff ff ff       	jmpq   400c70 <.plt>

0000000000400d10 <memset@plt>:
  400d10:	ff 25 4a 43 20 00    	jmpq   *0x20434a(%rip)        # 605060 <memset@GLIBC_2.2.5>
  400d16:	68 09 00 00 00       	pushq  $0x9
  400d1b:	e9 50 ff ff ff       	jmpq   400c70 <.plt>

0000000000400d20 <alarm@plt>:
  400d20:	ff 25 42 43 20 00    	jmpq   *0x204342(%rip)        # 605068 <alarm@GLIBC_2.2.5>
  400d26:	68 0a 00 00 00       	pushq  $0xa
  400d2b:	e9 40 ff ff ff       	jmpq   400c70 <.plt>

0000000000400d30 <close@plt>:
  400d30:	ff 25 3a 43 20 00    	jmpq   *0x20433a(%rip)        # 605070 <close@GLIBC_2.2.5>
  400d36:	68 0b 00 00 00       	pushq  $0xb
  400d3b:	e9 30 ff ff ff       	jmpq   400c70 <.plt>

0000000000400d40 <read@plt>:
  400d40:	ff 25 32 43 20 00    	jmpq   *0x204332(%rip)        # 605078 <read@GLIBC_2.2.5>
  400d46:	68 0c 00 00 00       	pushq  $0xc
  400d4b:	e9 20 ff ff ff       	jmpq   400c70 <.plt>

0000000000400d50 <__libc_start_main@plt>:
  400d50:	ff 25 2a 43 20 00    	jmpq   *0x20432a(%rip)        # 605080 <__libc_start_main@GLIBC_2.2.5>
  400d56:	68 0d 00 00 00       	pushq  $0xd
  400d5b:	e9 10 ff ff ff       	jmpq   400c70 <.plt>

0000000000400d60 <signal@plt>:
  400d60:	ff 25 22 43 20 00    	jmpq   *0x204322(%rip)        # 605088 <signal@GLIBC_2.2.5>
  400d66:	68 0e 00 00 00       	pushq  $0xe
  400d6b:	e9 00 ff ff ff       	jmpq   400c70 <.plt>

0000000000400d70 <gethostbyname@plt>:
  400d70:	ff 25 1a 43 20 00    	jmpq   *0x20431a(%rip)        # 605090 <gethostbyname@GLIBC_2.2.5>
  400d76:	68 0f 00 00 00       	pushq  $0xf
  400d7b:	e9 f0 fe ff ff       	jmpq   400c70 <.plt>

0000000000400d80 <__memmove_chk@plt>:
  400d80:	ff 25 12 43 20 00    	jmpq   *0x204312(%rip)        # 605098 <__memmove_chk@GLIBC_2.3.4>
  400d86:	68 10 00 00 00       	pushq  $0x10
  400d8b:	e9 e0 fe ff ff       	jmpq   400c70 <.plt>

0000000000400d90 <strtol@plt>:
  400d90:	ff 25 0a 43 20 00    	jmpq   *0x20430a(%rip)        # 6050a0 <strtol@GLIBC_2.2.5>
  400d96:	68 11 00 00 00       	pushq  $0x11
  400d9b:	e9 d0 fe ff ff       	jmpq   400c70 <.plt>

0000000000400da0 <memcpy@plt>:
  400da0:	ff 25 02 43 20 00    	jmpq   *0x204302(%rip)        # 6050a8 <memcpy@GLIBC_2.14>
  400da6:	68 12 00 00 00       	pushq  $0x12
  400dab:	e9 c0 fe ff ff       	jmpq   400c70 <.plt>

0000000000400db0 <time@plt>:
  400db0:	ff 25 fa 42 20 00    	jmpq   *0x2042fa(%rip)        # 6050b0 <time@GLIBC_2.2.5>
  400db6:	68 13 00 00 00       	pushq  $0x13
  400dbb:	e9 b0 fe ff ff       	jmpq   400c70 <.plt>

0000000000400dc0 <random@plt>:
  400dc0:	ff 25 f2 42 20 00    	jmpq   *0x2042f2(%rip)        # 6050b8 <random@GLIBC_2.2.5>
  400dc6:	68 14 00 00 00       	pushq  $0x14
  400dcb:	e9 a0 fe ff ff       	jmpq   400c70 <.plt>

0000000000400dd0 <_IO_getc@plt>:
  400dd0:	ff 25 ea 42 20 00    	jmpq   *0x2042ea(%rip)        # 6050c0 <_IO_getc@GLIBC_2.2.5>
  400dd6:	68 15 00 00 00       	pushq  $0x15
  400ddb:	e9 90 fe ff ff       	jmpq   400c70 <.plt>

0000000000400de0 <__isoc99_sscanf@plt>:
  400de0:	ff 25 e2 42 20 00    	jmpq   *0x2042e2(%rip)        # 6050c8 <__isoc99_sscanf@GLIBC_2.7>
  400de6:	68 16 00 00 00       	pushq  $0x16
  400deb:	e9 80 fe ff ff       	jmpq   400c70 <.plt>

0000000000400df0 <munmap@plt>:
  400df0:	ff 25 da 42 20 00    	jmpq   *0x2042da(%rip)        # 6050d0 <munmap@GLIBC_2.2.5>
  400df6:	68 17 00 00 00       	pushq  $0x17
  400dfb:	e9 70 fe ff ff       	jmpq   400c70 <.plt>

0000000000400e00 <__printf_chk@plt>:
  400e00:	ff 25 d2 42 20 00    	jmpq   *0x2042d2(%rip)        # 6050d8 <__printf_chk@GLIBC_2.3.4>
  400e06:	68 18 00 00 00       	pushq  $0x18
  400e0b:	e9 60 fe ff ff       	jmpq   400c70 <.plt>

0000000000400e10 <fopen@plt>:
  400e10:	ff 25 ca 42 20 00    	jmpq   *0x2042ca(%rip)        # 6050e0 <fopen@GLIBC_2.2.5>
  400e16:	68 19 00 00 00       	pushq  $0x19
  400e1b:	e9 50 fe ff ff       	jmpq   400c70 <.plt>

0000000000400e20 <getopt@plt>:
  400e20:	ff 25 c2 42 20 00    	jmpq   *0x2042c2(%rip)        # 6050e8 <getopt@GLIBC_2.2.5>
  400e26:	68 1a 00 00 00       	pushq  $0x1a
  400e2b:	e9 40 fe ff ff       	jmpq   400c70 <.plt>

0000000000400e30 <strtoul@plt>:
  400e30:	ff 25 ba 42 20 00    	jmpq   *0x2042ba(%rip)        # 6050f0 <strtoul@GLIBC_2.2.5>
  400e36:	68 1b 00 00 00       	pushq  $0x1b
  400e3b:	e9 30 fe ff ff       	jmpq   400c70 <.plt>

0000000000400e40 <gethostname@plt>:
  400e40:	ff 25 b2 42 20 00    	jmpq   *0x2042b2(%rip)        # 6050f8 <gethostname@GLIBC_2.2.5>
  400e46:	68 1c 00 00 00       	pushq  $0x1c
  400e4b:	e9 20 fe ff ff       	jmpq   400c70 <.plt>

0000000000400e50 <exit@plt>:
  400e50:	ff 25 aa 42 20 00    	jmpq   *0x2042aa(%rip)        # 605100 <exit@GLIBC_2.2.5>
  400e56:	68 1d 00 00 00       	pushq  $0x1d
  400e5b:	e9 10 fe ff ff       	jmpq   400c70 <.plt>

0000000000400e60 <connect@plt>:
  400e60:	ff 25 a2 42 20 00    	jmpq   *0x2042a2(%rip)        # 605108 <connect@GLIBC_2.2.5>
  400e66:	68 1e 00 00 00       	pushq  $0x1e
  400e6b:	e9 00 fe ff ff       	jmpq   400c70 <.plt>

0000000000400e70 <__fprintf_chk@plt>:
  400e70:	ff 25 9a 42 20 00    	jmpq   *0x20429a(%rip)        # 605110 <__fprintf_chk@GLIBC_2.3.4>
  400e76:	68 1f 00 00 00       	pushq  $0x1f
  400e7b:	e9 f0 fd ff ff       	jmpq   400c70 <.plt>

0000000000400e80 <__sprintf_chk@plt>:
  400e80:	ff 25 92 42 20 00    	jmpq   *0x204292(%rip)        # 605118 <__sprintf_chk@GLIBC_2.3.4>
  400e86:	68 20 00 00 00       	pushq  $0x20
  400e8b:	e9 e0 fd ff ff       	jmpq   400c70 <.plt>

0000000000400e90 <socket@plt>:
  400e90:	ff 25 8a 42 20 00    	jmpq   *0x20428a(%rip)        # 605120 <socket@GLIBC_2.2.5>
  400e96:	68 21 00 00 00       	pushq  $0x21
  400e9b:	e9 d0 fd ff ff       	jmpq   400c70 <.plt>

Disassembly of section .plt.got:

0000000000400ea0 <__gmon_start__@plt>:
  400ea0:	ff 25 52 41 20 00    	jmpq   *0x204152(%rip)        # 604ff8 <__gmon_start__>
  400ea6:	66 90                	xchg   %ax,%ax

Disassembly of section .text:

0000000000400eb0 <_start>:
  400eb0:	31 ed                	xor    %ebp,%ebp
  400eb2:	49 89 d1             	mov    %rdx,%r9
  400eb5:	5e                   	pop    %rsi
  400eb6:	48 89 e2             	mov    %rsp,%rdx
  400eb9:	48 83 e4 f0          	and    $0xfffffffffffffff0,%rsp
  400ebd:	50                   	push   %rax
  400ebe:	54                   	push   %rsp
  400ebf:	49 c7 c0 c0 2e 40 00 	mov    $0x402ec0,%r8
  400ec6:	48 c7 c1 50 2e 40 00 	mov    $0x402e50,%rcx
  400ecd:	48 c7 c7 b5 11 40 00 	mov    $0x4011b5,%rdi
  400ed4:	e8 77 fe ff ff       	callq  400d50 <__libc_start_main@plt>
  400ed9:	f4                   	hlt    
  400eda:	66 0f 1f 44 00 00    	nopw   0x0(%rax,%rax,1)

0000000000400ee0 <deregister_tm_clones>:
  400ee0:	b8 b7 54 60 00       	mov    $0x6054b7,%eax
  400ee5:	55                   	push   %rbp
  400ee6:	48 2d b0 54 60 00    	sub    $0x6054b0,%rax
  400eec:	48 83 f8 0e          	cmp    $0xe,%rax
  400ef0:	48 89 e5             	mov    %rsp,%rbp
  400ef3:	76 1b                	jbe    400f10 <deregister_tm_clones+0x30>
  400ef5:	b8 00 00 00 00       	mov    $0x0,%eax
  400efa:	48 85 c0             	test   %rax,%rax
  400efd:	74 11                	je     400f10 <deregister_tm_clones+0x30>
  400eff:	5d                   	pop    %rbp
  400f00:	bf b0 54 60 00       	mov    $0x6054b0,%edi
  400f05:	ff e0                	jmpq   *%rax
  400f07:	66 0f 1f 84 00 00 00 	nopw   0x0(%rax,%rax,1)
  400f0e:	00 00 
  400f10:	5d                   	pop    %rbp
  400f11:	c3                   	retq   
  400f12:	0f 1f 40 00          	nopl   0x0(%rax)
  400f16:	66 2e 0f 1f 84 00 00 	nopw   %cs:0x0(%rax,%rax,1)
  400f1d:	00 00 00 

0000000000400f20 <register_tm_clones>:
  400f20:	be b0 54 60 00       	mov    $0x6054b0,%esi
  400f25:	55                   	push   %rbp
  400f26:	48 81 ee b0 54 60 00 	sub    $0x6054b0,%rsi
  400f2d:	48 c1 fe 03          	sar    $0x3,%rsi
  400f31:	48 89 e5             	mov    %rsp,%rbp
  400f34:	48 89 f0             	mov    %rsi,%rax
  400f37:	48 c1 e8 3f          	shr    $0x3f,%rax
  400f3b:	48 01 c6             	add    %rax,%rsi
  400f3e:	48 d1 fe             	sar    %rsi
  400f41:	74 15                	je     400f58 <register_tm_clones+0x38>
  400f43:	b8 00 00 00 00       	mov    $0x0,%eax
  400f48:	48 85 c0             	test   %rax,%rax
  400f4b:	74 0b                	je     400f58 <register_tm_clones+0x38>
  400f4d:	5d                   	pop    %rbp
  400f4e:	bf b0 54 60 00       	mov    $0x6054b0,%edi
  400f53:	ff e0                	jmpq   *%rax
  400f55:	0f 1f 00             	nopl   (%rax)
  400f58:	5d                   	pop    %rbp
  400f59:	c3                   	retq   
  400f5a:	66 0f 1f 44 00 00    	nopw   0x0(%rax,%rax,1)

0000000000400f60 <__do_global_dtors_aux>:
  400f60:	80 3d 81 45 20 00 00 	cmpb   $0x0,0x204581(%rip)        # 6054e8 <completed.7594>
  400f67:	75 11                	jne    400f7a <__do_global_dtors_aux+0x1a>
  400f69:	55                   	push   %rbp
  400f6a:	48 89 e5             	mov    %rsp,%rbp
  400f6d:	e8 6e ff ff ff       	callq  400ee0 <deregister_tm_clones>
  400f72:	5d                   	pop    %rbp
  400f73:	c6 05 6e 45 20 00 01 	movb   $0x1,0x20456e(%rip)        # 6054e8 <completed.7594>
  400f7a:	f3 c3                	repz retq 
  400f7c:	0f 1f 40 00          	nopl   0x0(%rax)

0000000000400f80 <frame_dummy>:
  400f80:	bf 20 4e 60 00       	mov    $0x604e20,%edi
  400f85:	48 83 3f 00          	cmpq   $0x0,(%rdi)
  400f89:	75 05                	jne    400f90 <frame_dummy+0x10>
  400f8b:	eb 93                	jmp    400f20 <register_tm_clones>
  400f8d:	0f 1f 00             	nopl   (%rax)
  400f90:	b8 00 00 00 00       	mov    $0x0,%eax
  400f95:	48 85 c0             	test   %rax,%rax
  400f98:	74 f1                	je     400f8b <frame_dummy+0xb>
  400f9a:	55                   	push   %rbp
  400f9b:	48 89 e5             	mov    %rsp,%rbp
  400f9e:	ff d0                	callq  *%rax
  400fa0:	5d                   	pop    %rbp
  400fa1:	e9 7a ff ff ff       	jmpq   400f20 <register_tm_clones>

0000000000400fa6 <usage>:
  400fa6:	48 83 ec 08          	sub    $0x8,%rsp
  400faa:	48 89 fa             	mov    %rdi,%rdx
  400fad:	83 3d 74 45 20 00 00 	cmpl   $0x0,0x204574(%rip)        # 605528 <is_checker>
  400fb4:	74 3e                	je     400ff4 <usage+0x4e>
  400fb6:	be d8 2e 40 00       	mov    $0x402ed8,%esi
  400fbb:	bf 01 00 00 00       	mov    $0x1,%edi
  400fc0:	b8 00 00 00 00       	mov    $0x0,%eax
  400fc5:	e8 36 fe ff ff       	callq  400e00 <__printf_chk@plt>
  400fca:	bf 10 2f 40 00       	mov    $0x402f10,%edi
  400fcf:	e8 fc fc ff ff       	callq  400cd0 <puts@plt>
  400fd4:	bf 88 30 40 00       	mov    $0x403088,%edi
  400fd9:	e8 f2 fc ff ff       	callq  400cd0 <puts@plt>
  400fde:	bf 38 2f 40 00       	mov    $0x402f38,%edi
  400fe3:	e8 e8 fc ff ff       	callq  400cd0 <puts@plt>
  400fe8:	bf a2 30 40 00       	mov    $0x4030a2,%edi
  400fed:	e8 de fc ff ff       	callq  400cd0 <puts@plt>
  400ff2:	eb 32                	jmp    401026 <usage+0x80>
  400ff4:	be be 30 40 00       	mov    $0x4030be,%esi
  400ff9:	bf 01 00 00 00       	mov    $0x1,%edi
  400ffe:	b8 00 00 00 00       	mov    $0x0,%eax
  401003:	e8 f8 fd ff ff       	callq  400e00 <__printf_chk@plt>
  401008:	bf 60 2f 40 00       	mov    $0x402f60,%edi
  40100d:	e8 be fc ff ff       	callq  400cd0 <puts@plt>
  401012:	bf 88 2f 40 00       	mov    $0x402f88,%edi
  401017:	e8 b4 fc ff ff       	callq  400cd0 <puts@plt>
  40101c:	bf dc 30 40 00       	mov    $0x4030dc,%edi
  401021:	e8 aa fc ff ff       	callq  400cd0 <puts@plt>
  401026:	bf 00 00 00 00       	mov    $0x0,%edi
  40102b:	e8 20 fe ff ff       	callq  400e50 <exit@plt>

0000000000401030 <initialize_target>:
  401030:	55                   	push   %rbp
  401031:	53                   	push   %rbx
  401032:	48 81 ec 18 21 00 00 	sub    $0x2118,%rsp
  401039:	89 f5                	mov    %esi,%ebp
  40103b:	64 48 8b 04 25 28 00 	mov    %fs:0x28,%rax
  401042:	00 00 
  401044:	48 89 84 24 08 21 00 	mov    %rax,0x2108(%rsp)
  40104b:	00 
  40104c:	31 c0                	xor    %eax,%eax
  40104e:	89 3d c4 44 20 00    	mov    %edi,0x2044c4(%rip)        # 605518 <check_level>
  401054:	8b 3d 0e 41 20 00    	mov    0x20410e(%rip),%edi        # 605168 <target_id>
  40105a:	e8 ca 1d 00 00       	callq  402e29 <gencookie>
  40105f:	89 05 bf 44 20 00    	mov    %eax,0x2044bf(%rip)        # 605524 <cookie>
  401065:	89 c7                	mov    %eax,%edi
  401067:	e8 bd 1d 00 00       	callq  402e29 <gencookie>
  40106c:	89 05 ae 44 20 00    	mov    %eax,0x2044ae(%rip)        # 605520 <authkey>
  401072:	8b 05 f0 40 20 00    	mov    0x2040f0(%rip),%eax        # 605168 <target_id>
  401078:	8d 78 01             	lea    0x1(%rax),%edi
  40107b:	e8 20 fc ff ff       	callq  400ca0 <srandom@plt>
  401080:	e8 3b fd ff ff       	callq  400dc0 <random@plt>
  401085:	89 c7                	mov    %eax,%edi
  401087:	e8 03 03 00 00       	callq  40138f <scramble>
  40108c:	89 c3                	mov    %eax,%ebx
  40108e:	85 ed                	test   %ebp,%ebp
  401090:	74 18                	je     4010aa <initialize_target+0x7a>
  401092:	bf 00 00 00 00       	mov    $0x0,%edi
  401097:	e8 14 fd ff ff       	callq  400db0 <time@plt>
  40109c:	89 c7                	mov    %eax,%edi
  40109e:	e8 fd fb ff ff       	callq  400ca0 <srandom@plt>
  4010a3:	e8 18 fd ff ff       	callq  400dc0 <random@plt>
  4010a8:	eb 05                	jmp    4010af <initialize_target+0x7f>
  4010aa:	b8 00 00 00 00       	mov    $0x0,%eax
  4010af:	01 c3                	add    %eax,%ebx
  4010b1:	0f b7 db             	movzwl %bx,%ebx
  4010b4:	8d 04 dd 00 01 00 00 	lea    0x100(,%rbx,8),%eax
  4010bb:	89 c0                	mov    %eax,%eax
  4010bd:	48 89 05 dc 43 20 00 	mov    %rax,0x2043dc(%rip)        # 6054a0 <buf_offset>
  4010c4:	c6 05 7d 50 20 00 63 	movb   $0x63,0x20507d(%rip)        # 606148 <target_prefix>
  4010cb:	83 3d d6 43 20 00 00 	cmpl   $0x0,0x2043d6(%rip)        # 6054a8 <notify>
  4010d2:	0f 84 bb 00 00 00    	je     401193 <initialize_target+0x163>
  4010d8:	83 3d 49 44 20 00 00 	cmpl   $0x0,0x204449(%rip)        # 605528 <is_checker>
  4010df:	0f 85 ae 00 00 00    	jne    401193 <initialize_target+0x163>
  4010e5:	be 00 01 00 00       	mov    $0x100,%esi
  4010ea:	48 89 e7             	mov    %rsp,%rdi
  4010ed:	e8 4e fd ff ff       	callq  400e40 <gethostname@plt>
  4010f2:	85 c0                	test   %eax,%eax
  4010f4:	74 25                	je     40111b <initialize_target+0xeb>
  4010f6:	bf b8 2f 40 00       	mov    $0x402fb8,%edi
  4010fb:	e8 d0 fb ff ff       	callq  400cd0 <puts@plt>
  401100:	bf 08 00 00 00       	mov    $0x8,%edi
  401105:	e8 46 fd ff ff       	callq  400e50 <exit@plt>
  40110a:	48 89 e6             	mov    %rsp,%rsi
  40110d:	e8 6e fb ff ff       	callq  400c80 <strcasecmp@plt>
  401112:	85 c0                	test   %eax,%eax
  401114:	74 21                	je     401137 <initialize_target+0x107>
  401116:	83 c3 01             	add    $0x1,%ebx
  401119:	eb 05                	jmp    401120 <initialize_target+0xf0>
  40111b:	bb 00 00 00 00       	mov    $0x0,%ebx
  401120:	48 63 c3             	movslq %ebx,%rax
  401123:	48 8b 3c c5 80 51 60 	mov    0x605180(,%rax,8),%rdi
  40112a:	00 
  40112b:	48 85 ff             	test   %rdi,%rdi
  40112e:	75 da                	jne    40110a <initialize_target+0xda>
  401130:	b8 00 00 00 00       	mov    $0x0,%eax
  401135:	eb 05                	jmp    40113c <initialize_target+0x10c>
  401137:	b8 01 00 00 00       	mov    $0x1,%eax
  40113c:	85 c0                	test   %eax,%eax
  40113e:	75 1c                	jne    40115c <initialize_target+0x12c>
  401140:	48 89 e2             	mov    %rsp,%rdx
  401143:	be f0 2f 40 00       	mov    $0x402ff0,%esi
  401148:	bf 01 00 00 00       	mov    $0x1,%edi
  40114d:	e8 ae fc ff ff       	callq  400e00 <__printf_chk@plt>
  401152:	bf 08 00 00 00       	mov    $0x8,%edi
  401157:	e8 f4 fc ff ff       	callq  400e50 <exit@plt>
  40115c:	48 8d bc 24 00 01 00 	lea    0x100(%rsp),%rdi
  401163:	00 
  401164:	e8 2a 1a 00 00       	callq  402b93 <init_driver>
  401169:	85 c0                	test   %eax,%eax
  40116b:	79 26                	jns    401193 <initialize_target+0x163>
  40116d:	48 8d 94 24 00 01 00 	lea    0x100(%rsp),%rdx
  401174:	00 
  401175:	be 30 30 40 00       	mov    $0x403030,%esi
  40117a:	bf 01 00 00 00       	mov    $0x1,%edi
  40117f:	b8 00 00 00 00       	mov    $0x0,%eax
  401184:	e8 77 fc ff ff       	callq  400e00 <__printf_chk@plt>
  401189:	bf 08 00 00 00       	mov    $0x8,%edi
  40118e:	e8 bd fc ff ff       	callq  400e50 <exit@plt>
  401193:	48 8b 84 24 08 21 00 	mov    0x2108(%rsp),%rax
  40119a:	00 
  40119b:	64 48 33 04 25 28 00 	xor    %fs:0x28,%rax
  4011a2:	00 00 
  4011a4:	74 05                	je     4011ab <initialize_target+0x17b>
  4011a6:	e8 45 fb ff ff       	callq  400cf0 <__stack_chk_fail@plt>
  4011ab:	48 81 c4 18 21 00 00 	add    $0x2118,%rsp
  4011b2:	5b                   	pop    %rbx
  4011b3:	5d                   	pop    %rbp
  4011b4:	c3                   	retq   

00000000004011b5 <main>:
  4011b5:	41 56                	push   %r14
  4011b7:	41 55                	push   %r13
  4011b9:	41 54                	push   %r12
  4011bb:	55                   	push   %rbp
  4011bc:	53                   	push   %rbx
  4011bd:	41 89 fc             	mov    %edi,%r12d
  4011c0:	48 89 f3             	mov    %rsi,%rbx
  4011c3:	be ce 1e 40 00       	mov    $0x401ece,%esi
  4011c8:	bf 0b 00 00 00       	mov    $0xb,%edi
  4011cd:	e8 8e fb ff ff       	callq  400d60 <signal@plt>
  4011d2:	be 80 1e 40 00       	mov    $0x401e80,%esi
  4011d7:	bf 07 00 00 00       	mov    $0x7,%edi
  4011dc:	e8 7f fb ff ff       	callq  400d60 <signal@plt>
  4011e1:	be 1c 1f 40 00       	mov    $0x401f1c,%esi
  4011e6:	bf 04 00 00 00       	mov    $0x4,%edi
  4011eb:	e8 70 fb ff ff       	callq  400d60 <signal@plt>
  4011f0:	83 3d 31 43 20 00 00 	cmpl   $0x0,0x204331(%rip)        # 605528 <is_checker>
  4011f7:	74 20                	je     401219 <main+0x64>
  4011f9:	be 6a 1f 40 00       	mov    $0x401f6a,%esi
  4011fe:	bf 0e 00 00 00       	mov    $0xe,%edi
  401203:	e8 58 fb ff ff       	callq  400d60 <signal@plt>
  401208:	bf 05 00 00 00       	mov    $0x5,%edi
  40120d:	e8 0e fb ff ff       	callq  400d20 <alarm@plt>
  401212:	bd fa 30 40 00       	mov    $0x4030fa,%ebp
  401217:	eb 05                	jmp    40121e <main+0x69>
  401219:	bd f5 30 40 00       	mov    $0x4030f5,%ebp
  40121e:	48 8b 05 9b 42 20 00 	mov    0x20429b(%rip),%rax        # 6054c0 <stdin@@GLIBC_2.2.5>
  401225:	48 89 05 e4 42 20 00 	mov    %rax,0x2042e4(%rip)        # 605510 <infile>
  40122c:	41 bd 00 00 00 00    	mov    $0x0,%r13d
  401232:	41 be 00 00 00 00    	mov    $0x0,%r14d
  401238:	e9 c6 00 00 00       	jmpq   401303 <main+0x14e>
  40123d:	83 e8 61             	sub    $0x61,%eax
  401240:	3c 10                	cmp    $0x10,%al
  401242:	0f 87 9c 00 00 00    	ja     4012e4 <main+0x12f>
  401248:	0f b6 c0             	movzbl %al,%eax
  40124b:	ff 24 c5 40 31 40 00 	jmpq   *0x403140(,%rax,8)
  401252:	48 8b 3b             	mov    (%rbx),%rdi
  401255:	e8 4c fd ff ff       	callq  400fa6 <usage>
  40125a:	be 3d 35 40 00       	mov    $0x40353d,%esi
  40125f:	48 8b 3d 62 42 20 00 	mov    0x204262(%rip),%rdi        # 6054c8 <optarg@@GLIBC_2.2.5>
  401266:	e8 a5 fb ff ff       	callq  400e10 <fopen@plt>
  40126b:	48 89 05 9e 42 20 00 	mov    %rax,0x20429e(%rip)        # 605510 <infile>
  401272:	48 85 c0             	test   %rax,%rax
  401275:	0f 85 88 00 00 00    	jne    401303 <main+0x14e>
  40127b:	48 8b 0d 46 42 20 00 	mov    0x204246(%rip),%rcx        # 6054c8 <optarg@@GLIBC_2.2.5>
  401282:	ba 02 31 40 00       	mov    $0x403102,%edx
  401287:	be 01 00 00 00       	mov    $0x1,%esi
  40128c:	48 8b 3d 4d 42 20 00 	mov    0x20424d(%rip),%rdi        # 6054e0 <stderr@@GLIBC_2.2.5>
  401293:	e8 d8 fb ff ff       	callq  400e70 <__fprintf_chk@plt>
  401298:	b8 01 00 00 00       	mov    $0x1,%eax
  40129d:	e9 e4 00 00 00       	jmpq   401386 <main+0x1d1>
  4012a2:	ba 10 00 00 00       	mov    $0x10,%edx
  4012a7:	be 00 00 00 00       	mov    $0x0,%esi
  4012ac:	48 8b 3d 15 42 20 00 	mov    0x204215(%rip),%rdi        # 6054c8 <optarg@@GLIBC_2.2.5>
  4012b3:	e8 78 fb ff ff       	callq  400e30 <strtoul@plt>
  4012b8:	41 89 c6             	mov    %eax,%r14d
  4012bb:	eb 46                	jmp    401303 <main+0x14e>
  4012bd:	ba 0a 00 00 00       	mov    $0xa,%edx
  4012c2:	be 00 00 00 00       	mov    $0x0,%esi
  4012c7:	48 8b 3d fa 41 20 00 	mov    0x2041fa(%rip),%rdi        # 6054c8 <optarg@@GLIBC_2.2.5>
  4012ce:	e8 bd fa ff ff       	callq  400d90 <strtol@plt>
  4012d3:	41 89 c5             	mov    %eax,%r13d
  4012d6:	eb 2b                	jmp    401303 <main+0x14e>
  4012d8:	c7 05 c6 41 20 00 00 	movl   $0x0,0x2041c6(%rip)        # 6054a8 <notify>
  4012df:	00 00 00 
  4012e2:	eb 1f                	jmp    401303 <main+0x14e>
  4012e4:	0f be d2             	movsbl %dl,%edx
  4012e7:	be 1f 31 40 00       	mov    $0x40311f,%esi
  4012ec:	bf 01 00 00 00       	mov    $0x1,%edi
  4012f1:	b8 00 00 00 00       	mov    $0x0,%eax
  4012f6:	e8 05 fb ff ff       	callq  400e00 <__printf_chk@plt>
  4012fb:	48 8b 3b             	mov    (%rbx),%rdi
  4012fe:	e8 a3 fc ff ff       	callq  400fa6 <usage>
  401303:	48 89 ea             	mov    %rbp,%rdx
  401306:	48 89 de             	mov    %rbx,%rsi
  401309:	44 89 e7             	mov    %r12d,%edi
  40130c:	e8 0f fb ff ff       	callq  400e20 <getopt@plt>
  401311:	89 c2                	mov    %eax,%edx
  401313:	3c ff                	cmp    $0xff,%al
  401315:	0f 85 22 ff ff ff    	jne    40123d <main+0x88>
  40131b:	be 00 00 00 00       	mov    $0x0,%esi
  401320:	44 89 ef             	mov    %r13d,%edi
  401323:	e8 08 fd ff ff       	callq  401030 <initialize_target>
  401328:	83 3d f9 41 20 00 00 	cmpl   $0x0,0x2041f9(%rip)        # 605528 <is_checker>
  40132f:	74 2a                	je     40135b <main+0x1a6>
  401331:	44 3b 35 e8 41 20 00 	cmp    0x2041e8(%rip),%r14d        # 605520 <authkey>
  401338:	74 21                	je     40135b <main+0x1a6>
  40133a:	44 89 f2             	mov    %r14d,%edx
  40133d:	be 58 30 40 00       	mov    $0x403058,%esi
  401342:	bf 01 00 00 00       	mov    $0x1,%edi
  401347:	b8 00 00 00 00       	mov    $0x0,%eax
  40134c:	e8 af fa ff ff       	callq  400e00 <__printf_chk@plt>
  401351:	b8 00 00 00 00       	mov    $0x0,%eax
  401356:	e8 c1 07 00 00       	callq  401b1c <check_fail>
  40135b:	8b 15 c3 41 20 00    	mov    0x2041c3(%rip),%edx        # 605524 <cookie>
  401361:	be 32 31 40 00       	mov    $0x403132,%esi
  401366:	bf 01 00 00 00       	mov    $0x1,%edi
  40136b:	b8 00 00 00 00       	mov    $0x0,%eax
  401370:	e8 8b fa ff ff       	callq  400e00 <__printf_chk@plt>
  401375:	48 8b 3d 24 41 20 00 	mov    0x204124(%rip),%rdi        # 6054a0 <buf_offset>
  40137c:	e8 e9 0c 00 00       	callq  40206a <stable_launch>
  401381:	b8 00 00 00 00       	mov    $0x0,%eax
  401386:	5b                   	pop    %rbx
  401387:	5d                   	pop    %rbp
  401388:	41 5c                	pop    %r12
  40138a:	41 5d                	pop    %r13
  40138c:	41 5e                	pop    %r14
  40138e:	c3                   	retq   

000000000040138f <scramble>:
  40138f:	48 83 ec 38          	sub    $0x38,%rsp
  401393:	64 48 8b 04 25 28 00 	mov    %fs:0x28,%rax
  40139a:	00 00 
  40139c:	48 89 44 24 28       	mov    %rax,0x28(%rsp)
  4013a1:	31 c0                	xor    %eax,%eax
  4013a3:	eb 10                	jmp    4013b5 <scramble+0x26>
  4013a5:	69 d0 0e d5 00 00    	imul   $0xd50e,%eax,%edx
  4013ab:	01 fa                	add    %edi,%edx
  4013ad:	89 c1                	mov    %eax,%ecx
  4013af:	89 14 8c             	mov    %edx,(%rsp,%rcx,4)
  4013b2:	83 c0 01             	add    $0x1,%eax
  4013b5:	83 f8 09             	cmp    $0x9,%eax
  4013b8:	76 eb                	jbe    4013a5 <scramble+0x16>
  4013ba:	8b 44 24 20          	mov    0x20(%rsp),%eax
  4013be:	69 c0 11 aa 00 00    	imul   $0xaa11,%eax,%eax
  4013c4:	89 44 24 20          	mov    %eax,0x20(%rsp)
  4013c8:	8b 44 24 18          	mov    0x18(%rsp),%eax
  4013cc:	69 c0 c9 29 00 00    	imul   $0x29c9,%eax,%eax
  4013d2:	89 44 24 18          	mov    %eax,0x18(%rsp)
  4013d6:	8b 44 24 20          	mov    0x20(%rsp),%eax
  4013da:	69 c0 f0 ab 00 00    	imul   $0xabf0,%eax,%eax
  4013e0:	89 44 24 20          	mov    %eax,0x20(%rsp)
  4013e4:	8b 44 24 24          	mov    0x24(%rsp),%eax
  4013e8:	69 c0 0c 14 00 00    	imul   $0x140c,%eax,%eax
  4013ee:	89 44 24 24          	mov    %eax,0x24(%rsp)
  4013f2:	8b 44 24 14          	mov    0x14(%rsp),%eax
  4013f6:	69 c0 72 2b 00 00    	imul   $0x2b72,%eax,%eax
  4013fc:	89 44 24 14          	mov    %eax,0x14(%rsp)
  401400:	8b 44 24 0c          	mov    0xc(%rsp),%eax
  401404:	69 c0 0d 87 00 00    	imul   $0x870d,%eax,%eax
  40140a:	89 44 24 0c          	mov    %eax,0xc(%rsp)
  40140e:	8b 44 24 14          	mov    0x14(%rsp),%eax
  401412:	69 c0 01 34 00 00    	imul   $0x3401,%eax,%eax
  401418:	89 44 24 14          	mov    %eax,0x14(%rsp)
  40141c:	8b 44 24 10          	mov    0x10(%rsp),%eax
  401420:	69 c0 3f b5 00 00    	imul   $0xb53f,%eax,%eax
  401426:	89 44 24 10          	mov    %eax,0x10(%rsp)
  40142a:	8b 44 24 24          	mov    0x24(%rsp),%eax
  40142e:	69 c0 59 5b 00 00    	imul   $0x5b59,%eax,%eax
  401434:	89 44 24 24          	mov    %eax,0x24(%rsp)
  401438:	8b 44 24 08          	mov    0x8(%rsp),%eax
  40143c:	69 c0 ba 87 00 00    	imul   $0x87ba,%eax,%eax
  401442:	89 44 24 08          	mov    %eax,0x8(%rsp)
  401446:	8b 44 24 0c          	mov    0xc(%rsp),%eax
  40144a:	69 c0 0f 7b 00 00    	imul   $0x7b0f,%eax,%eax
  401450:	89 44 24 0c          	mov    %eax,0xc(%rsp)
  401454:	8b 44 24 18          	mov    0x18(%rsp),%eax
  401458:	69 c0 85 c5 00 00    	imul   $0xc585,%eax,%eax
  40145e:	89 44 24 18          	mov    %eax,0x18(%rsp)
  401462:	8b 44 24 14          	mov    0x14(%rsp),%eax
  401466:	69 c0 d9 5c 00 00    	imul   $0x5cd9,%eax,%eax
  40146c:	89 44 24 14          	mov    %eax,0x14(%rsp)
  401470:	8b 44 24 10          	mov    0x10(%rsp),%eax
  401474:	69 c0 5b 0e 00 00    	imul   $0xe5b,%eax,%eax
  40147a:	89 44 24 10          	mov    %eax,0x10(%rsp)
  40147e:	8b 44 24 14          	mov    0x14(%rsp),%eax
  401482:	69 c0 a6 36 00 00    	imul   $0x36a6,%eax,%eax
  401488:	89 44 24 14          	mov    %eax,0x14(%rsp)
  40148c:	8b 44 24 04          	mov    0x4(%rsp),%eax
  401490:	89 c2                	mov    %eax,%edx
  401492:	c1 e2 0b             	shl    $0xb,%edx
  401495:	c1 e0 0f             	shl    $0xf,%eax
  401498:	29 d0                	sub    %edx,%eax
  40149a:	89 44 24 04          	mov    %eax,0x4(%rsp)
  40149e:	8b 44 24 20          	mov    0x20(%rsp),%eax
  4014a2:	69 c0 7d 8a 00 00    	imul   $0x8a7d,%eax,%eax
  4014a8:	89 44 24 20          	mov    %eax,0x20(%rsp)
  4014ac:	8b 44 24 14          	mov    0x14(%rsp),%eax
  4014b0:	69 c0 4b 31 00 00    	imul   $0x314b,%eax,%eax
  4014b6:	89 44 24 14          	mov    %eax,0x14(%rsp)
  4014ba:	8b 44 24 08          	mov    0x8(%rsp),%eax
  4014be:	69 c0 28 e7 00 00    	imul   $0xe728,%eax,%eax
  4014c4:	89 44 24 08          	mov    %eax,0x8(%rsp)
  4014c8:	8b 44 24 18          	mov    0x18(%rsp),%eax
  4014cc:	69 c0 be f5 00 00    	imul   $0xf5be,%eax,%eax
  4014d2:	89 44 24 18          	mov    %eax,0x18(%rsp)
  4014d6:	8b 04 24             	mov    (%rsp),%eax
  4014d9:	69 c0 77 48 00 00    	imul   $0x4877,%eax,%eax
  4014df:	89 04 24             	mov    %eax,(%rsp)
  4014e2:	8b 44 24 20          	mov    0x20(%rsp),%eax
  4014e6:	69 c0 66 30 00 00    	imul   $0x3066,%eax,%eax
  4014ec:	89 44 24 20          	mov    %eax,0x20(%rsp)
  4014f0:	8b 44 24 0c          	mov    0xc(%rsp),%eax
  4014f4:	69 c0 7b 7d 00 00    	imul   $0x7d7b,%eax,%eax
  4014fa:	89 44 24 0c          	mov    %eax,0xc(%rsp)
  4014fe:	8b 04 24             	mov    (%rsp),%eax
  401501:	69 c0 90 02 00 00    	imul   $0x290,%eax,%eax
  401507:	89 04 24             	mov    %eax,(%rsp)
  40150a:	8b 44 24 18          	mov    0x18(%rsp),%eax
  40150e:	69 c0 bf 8a 00 00    	imul   $0x8abf,%eax,%eax
  401514:	89 44 24 18          	mov    %eax,0x18(%rsp)
  401518:	8b 44 24 18          	mov    0x18(%rsp),%eax
  40151c:	69 c0 b7 8b 00 00    	imul   $0x8bb7,%eax,%eax
  401522:	89 44 24 18          	mov    %eax,0x18(%rsp)
  401526:	8b 44 24 08          	mov    0x8(%rsp),%eax
  40152a:	69 c0 ba 97 00 00    	imul   $0x97ba,%eax,%eax
  401530:	89 44 24 08          	mov    %eax,0x8(%rsp)
  401534:	8b 44 24 04          	mov    0x4(%rsp),%eax
  401538:	69 c0 65 bb 00 00    	imul   $0xbb65,%eax,%eax
  40153e:	89 44 24 04          	mov    %eax,0x4(%rsp)
  401542:	8b 44 24 08          	mov    0x8(%rsp),%eax
  401546:	69 c0 28 0a 00 00    	imul   $0xa28,%eax,%eax
  40154c:	89 44 24 08          	mov    %eax,0x8(%rsp)
  401550:	8b 44 24 08          	mov    0x8(%rsp),%eax
  401554:	69 c0 85 97 00 00    	imul   $0x9785,%eax,%eax
  40155a:	89 44 24 08          	mov    %eax,0x8(%rsp)
  40155e:	8b 44 24 24          	mov    0x24(%rsp),%eax
  401562:	69 c0 87 31 00 00    	imul   $0x3187,%eax,%eax
  401568:	89 44 24 24          	mov    %eax,0x24(%rsp)
  40156c:	8b 04 24             	mov    (%rsp),%eax
  40156f:	69 c0 85 21 00 00    	imul   $0x2185,%eax,%eax
  401575:	89 04 24             	mov    %eax,(%rsp)
  401578:	8b 44 24 10          	mov    0x10(%rsp),%eax
  40157c:	69 c0 4f b1 00 00    	imul   $0xb14f,%eax,%eax
  401582:	89 44 24 10          	mov    %eax,0x10(%rsp)
  401586:	8b 44 24 14          	mov    0x14(%rsp),%eax
  40158a:	69 c0 71 f2 00 00    	imul   $0xf271,%eax,%eax
  401590:	89 44 24 14          	mov    %eax,0x14(%rsp)
  401594:	8b 44 24 24          	mov    0x24(%rsp),%eax
  401598:	69 c0 28 98 00 00    	imul   $0x9828,%eax,%eax
  40159e:	89 44 24 24          	mov    %eax,0x24(%rsp)
  4015a2:	8b 44 24 14          	mov    0x14(%rsp),%eax
  4015a6:	69 c0 12 ab 00 00    	imul   $0xab12,%eax,%eax
  4015ac:	89 44 24 14          	mov    %eax,0x14(%rsp)
  4015b0:	8b 44 24 18          	mov    0x18(%rsp),%eax
  4015b4:	69 c0 fb 64 00 00    	imul   $0x64fb,%eax,%eax
  4015ba:	89 44 24 18          	mov    %eax,0x18(%rsp)
  4015be:	8b 44 24 1c          	mov    0x1c(%rsp),%eax
  4015c2:	69 c0 17 5d 00 00    	imul   $0x5d17,%eax,%eax
  4015c8:	89 44 24 1c          	mov    %eax,0x1c(%rsp)
  4015cc:	8b 44 24 1c          	mov    0x1c(%rsp),%eax
  4015d0:	69 c0 1d c1 00 00    	imul   $0xc11d,%eax,%eax
  4015d6:	89 44 24 1c          	mov    %eax,0x1c(%rsp)
  4015da:	8b 44 24 18          	mov    0x18(%rsp),%eax
  4015de:	69 c0 4b bb 00 00    	imul   $0xbb4b,%eax,%eax
  4015e4:	89 44 24 18          	mov    %eax,0x18(%rsp)
  4015e8:	8b 44 24 10          	mov    0x10(%rsp),%eax
  4015ec:	69 c0 f2 e9 00 00    	imul   $0xe9f2,%eax,%eax
  4015f2:	89 44 24 10          	mov    %eax,0x10(%rsp)
  4015f6:	8b 44 24 18          	mov    0x18(%rsp),%eax
  4015fa:	69 c0 ab 51 00 00    	imul   $0x51ab,%eax,%eax
  401600:	89 44 24 18          	mov    %eax,0x18(%rsp)
  401604:	8b 04 24             	mov    (%rsp),%eax
  401607:	69 c0 3f 98 00 00    	imul   $0x983f,%eax,%eax
  40160d:	89 04 24             	mov    %eax,(%rsp)
  401610:	8b 44 24 1c          	mov    0x1c(%rsp),%eax
  401614:	69 c0 3f 76 00 00    	imul   $0x763f,%eax,%eax
  40161a:	89 44 24 1c          	mov    %eax,0x1c(%rsp)
  40161e:	8b 44 24 18          	mov    0x18(%rsp),%eax
  401622:	69 c0 d0 d6 00 00    	imul   $0xd6d0,%eax,%eax
  401628:	89 44 24 18          	mov    %eax,0x18(%rsp)
  40162c:	8b 44 24 24          	mov    0x24(%rsp),%eax
  401630:	69 c0 35 e3 00 00    	imul   $0xe335,%eax,%eax
  401636:	89 44 24 24          	mov    %eax,0x24(%rsp)
  40163a:	8b 44 24 10          	mov    0x10(%rsp),%eax
  40163e:	69 c0 49 1d 00 00    	imul   $0x1d49,%eax,%eax
  401644:	89 44 24 10          	mov    %eax,0x10(%rsp)
  401648:	8b 44 24 14          	mov    0x14(%rsp),%eax
  40164c:	69 c0 5b c4 00 00    	imul   $0xc45b,%eax,%eax
  401652:	89 44 24 14          	mov    %eax,0x14(%rsp)
  401656:	8b 44 24 18          	mov    0x18(%rsp),%eax
  40165a:	69 c0 8a 57 00 00    	imul   $0x578a,%eax,%eax
  401660:	89 44 24 18          	mov    %eax,0x18(%rsp)
  401664:	8b 44 24 24          	mov    0x24(%rsp),%eax
  401668:	69 c0 10 67 00 00    	imul   $0x6710,%eax,%eax
  40166e:	89 44 24 24          	mov    %eax,0x24(%rsp)
  401672:	8b 44 24 10          	mov    0x10(%rsp),%eax
  401676:	69 c0 fb 9e 00 00    	imul   $0x9efb,%eax,%eax
  40167c:	89 44 24 10          	mov    %eax,0x10(%rsp)
  401680:	8b 44 24 24          	mov    0x24(%rsp),%eax
  401684:	69 c0 52 d0 00 00    	imul   $0xd052,%eax,%eax
  40168a:	89 44 24 24          	mov    %eax,0x24(%rsp)
  40168e:	8b 04 24             	mov    (%rsp),%eax
  401691:	69 c0 9a ed 00 00    	imul   $0xed9a,%eax,%eax
  401697:	89 04 24             	mov    %eax,(%rsp)
  40169a:	8b 44 24 08          	mov    0x8(%rsp),%eax
  40169e:	69 c0 6e e6 00 00    	imul   $0xe66e,%eax,%eax
  4016a4:	89 44 24 08          	mov    %eax,0x8(%rsp)
  4016a8:	8b 44 24 1c          	mov    0x1c(%rsp),%eax
  4016ac:	69 c0 11 8d 00 00    	imul   $0x8d11,%eax,%eax
  4016b2:	89 44 24 1c          	mov    %eax,0x1c(%rsp)
  4016b6:	8b 44 24 14          	mov    0x14(%rsp),%eax
  4016ba:	69 c0 94 fa 00 00    	imul   $0xfa94,%eax,%eax
  4016c0:	89 44 24 14          	mov    %eax,0x14(%rsp)
  4016c4:	8b 44 24 0c          	mov    0xc(%rsp),%eax
  4016c8:	69 c0 bc e8 00 00    	imul   $0xe8bc,%eax,%eax
  4016ce:	89 44 24 0c          	mov    %eax,0xc(%rsp)
  4016d2:	8b 44 24 04          	mov    0x4(%rsp),%eax
  4016d6:	69 c0 af f8 00 00    	imul   $0xf8af,%eax,%eax
  4016dc:	89 44 24 04          	mov    %eax,0x4(%rsp)
  4016e0:	8b 44 24 08          	mov    0x8(%rsp),%eax
  4016e4:	69 c0 4f 59 00 00    	imul   $0x594f,%eax,%eax
  4016ea:	89 44 24 08          	mov    %eax,0x8(%rsp)
  4016ee:	8b 44 24 1c          	mov    0x1c(%rsp),%eax
  4016f2:	69 c0 62 23 00 00    	imul   $0x2362,%eax,%eax
  4016f8:	89 44 24 1c          	mov    %eax,0x1c(%rsp)
  4016fc:	8b 44 24 1c          	mov    0x1c(%rsp),%eax
  401700:	69 c0 b2 7c 00 00    	imul   $0x7cb2,%eax,%eax
  401706:	89 44 24 1c          	mov    %eax,0x1c(%rsp)
  40170a:	8b 44 24 18          	mov    0x18(%rsp),%eax
  40170e:	69 c0 76 38 00 00    	imul   $0x3876,%eax,%eax
  401714:	89 44 24 18          	mov    %eax,0x18(%rsp)
  401718:	8b 44 24 24          	mov    0x24(%rsp),%eax
  40171c:	69 c0 51 0b 00 00    	imul   $0xb51,%eax,%eax
  401722:	89 44 24 24          	mov    %eax,0x24(%rsp)
  401726:	8b 44 24 0c          	mov    0xc(%rsp),%eax
  40172a:	69 c0 95 68 00 00    	imul   $0x6895,%eax,%eax
  401730:	89 44 24 0c          	mov    %eax,0xc(%rsp)
  401734:	8b 44 24 14          	mov    0x14(%rsp),%eax
  401738:	69 c0 9d b3 00 00    	imul   $0xb39d,%eax,%eax
  40173e:	89 44 24 14          	mov    %eax,0x14(%rsp)
  401742:	8b 44 24 14          	mov    0x14(%rsp),%eax
  401746:	69 c0 8e 52 00 00    	imul   $0x528e,%eax,%eax
  40174c:	89 44 24 14          	mov    %eax,0x14(%rsp)
  401750:	8b 44 24 04          	mov    0x4(%rsp),%eax
  401754:	69 c0 c8 e1 00 00    	imul   $0xe1c8,%eax,%eax
  40175a:	89 44 24 04          	mov    %eax,0x4(%rsp)
  40175e:	8b 44 24 10          	mov    0x10(%rsp),%eax
  401762:	69 c0 90 56 00 00    	imul   $0x5690,%eax,%eax
  401768:	89 44 24 10          	mov    %eax,0x10(%rsp)
  40176c:	8b 44 24 10          	mov    0x10(%rsp),%eax
  401770:	69 c0 4b 50 00 00    	imul   $0x504b,%eax,%eax
  401776:	89 44 24 10          	mov    %eax,0x10(%rsp)
  40177a:	8b 44 24 08          	mov    0x8(%rsp),%eax
  40177e:	69 c0 1a 7e 00 00    	imul   $0x7e1a,%eax,%eax
  401784:	89 44 24 08          	mov    %eax,0x8(%rsp)
  401788:	8b 44 24 1c          	mov    0x1c(%rsp),%eax
  40178c:	69 c0 b7 de 00 00    	imul   $0xdeb7,%eax,%eax
  401792:	89 44 24 1c          	mov    %eax,0x1c(%rsp)
  401796:	8b 44 24 14          	mov    0x14(%rsp),%eax
  40179a:	69 c0 60 54 00 00    	imul   $0x5460,%eax,%eax
  4017a0:	89 44 24 14          	mov    %eax,0x14(%rsp)
  4017a4:	8b 44 24 0c          	mov    0xc(%rsp),%eax
  4017a8:	69 c0 ee c4 00 00    	imul   $0xc4ee,%eax,%eax
  4017ae:	89 44 24 0c          	mov    %eax,0xc(%rsp)
  4017b2:	8b 44 24 20          	mov    0x20(%rsp),%eax
  4017b6:	69 c0 6e 48 00 00    	imul   $0x486e,%eax,%eax
  4017bc:	89 44 24 20          	mov    %eax,0x20(%rsp)
  4017c0:	8b 44 24 18          	mov    0x18(%rsp),%eax
  4017c4:	69 c0 fe bb 00 00    	imul   $0xbbfe,%eax,%eax
  4017ca:	89 44 24 18          	mov    %eax,0x18(%rsp)
  4017ce:	8b 44 24 18          	mov    0x18(%rsp),%eax
  4017d2:	69 c0 5d 4e 00 00    	imul   $0x4e5d,%eax,%eax
  4017d8:	89 44 24 18          	mov    %eax,0x18(%rsp)
  4017dc:	8b 44 24 18          	mov    0x18(%rsp),%eax
  4017e0:	69 c0 67 72 00 00    	imul   $0x7267,%eax,%eax
  4017e6:	89 44 24 18          	mov    %eax,0x18(%rsp)
  4017ea:	8b 44 24 20          	mov    0x20(%rsp),%eax
  4017ee:	69 c0 ac d2 00 00    	imul   $0xd2ac,%eax,%eax
  4017f4:	89 44 24 20          	mov    %eax,0x20(%rsp)
  4017f8:	8b 44 24 1c          	mov    0x1c(%rsp),%eax
  4017fc:	69 c0 a5 83 00 00    	imul   $0x83a5,%eax,%eax
  401802:	89 44 24 1c          	mov    %eax,0x1c(%rsp)
  401806:	8b 44 24 14          	mov    0x14(%rsp),%eax
  40180a:	69 c0 94 e0 00 00    	imul   $0xe094,%eax,%eax
  401810:	89 44 24 14          	mov    %eax,0x14(%rsp)
  401814:	8b 44 24 20          	mov    0x20(%rsp),%eax
  401818:	69 c0 e7 0a 00 00    	imul   $0xae7,%eax,%eax
  40181e:	89 44 24 20          	mov    %eax,0x20(%rsp)
  401822:	8b 44 24 1c          	mov    0x1c(%rsp),%eax
  401826:	69 c0 dc 89 00 00    	imul   $0x89dc,%eax,%eax
  40182c:	89 44 24 1c          	mov    %eax,0x1c(%rsp)
  401830:	8b 44 24 18          	mov    0x18(%rsp),%eax
  401834:	69 c0 03 56 00 00    	imul   $0x5603,%eax,%eax
  40183a:	89 44 24 18          	mov    %eax,0x18(%rsp)
  40183e:	8b 44 24 10          	mov    0x10(%rsp),%eax
  401842:	69 c0 11 bc 00 00    	imul   $0xbc11,%eax,%eax
  401848:	89 44 24 10          	mov    %eax,0x10(%rsp)
  40184c:	8b 44 24 08          	mov    0x8(%rsp),%eax
  401850:	69 c0 6a 1d 00 00    	imul   $0x1d6a,%eax,%eax
  401856:	89 44 24 08          	mov    %eax,0x8(%rsp)
  40185a:	8b 44 24 0c          	mov    0xc(%rsp),%eax
  40185e:	69 c0 ab 83 00 00    	imul   $0x83ab,%eax,%eax
  401864:	89 44 24 0c          	mov    %eax,0xc(%rsp)
  401868:	8b 44 24 1c          	mov    0x1c(%rsp),%eax
  40186c:	69 c0 db b2 00 00    	imul   $0xb2db,%eax,%eax
  401872:	89 44 24 1c          	mov    %eax,0x1c(%rsp)
  401876:	8b 44 24 0c          	mov    0xc(%rsp),%eax
  40187a:	69 c0 95 c3 00 00    	imul   $0xc395,%eax,%eax
  401880:	89 44 24 0c          	mov    %eax,0xc(%rsp)
  401884:	8b 44 24 24          	mov    0x24(%rsp),%eax
  401888:	69 c0 1a 25 00 00    	imul   $0x251a,%eax,%eax
  40188e:	89 44 24 24          	mov    %eax,0x24(%rsp)
  401892:	ba 00 00 00 00       	mov    $0x0,%edx
  401897:	b8 00 00 00 00       	mov    $0x0,%eax
  40189c:	eb 0a                	jmp    4018a8 <scramble+0x519>
  40189e:	89 d1                	mov    %edx,%ecx
  4018a0:	8b 0c 8c             	mov    (%rsp,%rcx,4),%ecx
  4018a3:	01 c8                	add    %ecx,%eax
  4018a5:	83 c2 01             	add    $0x1,%edx
  4018a8:	83 fa 09             	cmp    $0x9,%edx
  4018ab:	76 f1                	jbe    40189e <scramble+0x50f>
  4018ad:	48 8b 74 24 28       	mov    0x28(%rsp),%rsi
  4018b2:	64 48 33 34 25 28 00 	xor    %fs:0x28,%rsi
  4018b9:	00 00 
  4018bb:	74 05                	je     4018c2 <scramble+0x533>
  4018bd:	e8 2e f4 ff ff       	callq  400cf0 <__stack_chk_fail@plt>
  4018c2:	48 83 c4 38          	add    $0x38,%rsp
  4018c6:	c3                   	retq   

00000000004018c7 <getbuf>:
  4018c7:	48 83 ec 38          	sub    $0x38,%rsp
  4018cb:	48 89 e7             	mov    %rsp,%rdi
  4018ce:	e8 7e 02 00 00       	callq  401b51 <Gets>
  4018d3:	b8 01 00 00 00 x      	mov    $0x1,%eax
  4018d8:	48 83 c4 38          	add    $0x38,%rsp
  4018dc:	c3                   	retq   

00000000004018dd <touch1>:
  4018dd:	48 83 ec 08          	sub    $0x8,%rsp
  4018e1:	c7 05 31 3c 20 00 01 	movl   $0x1,0x203c31(%rip)        # 60551c <vlevel>
  4018e8:	00 00 00 
  4018eb:	bf 94 33 40 00       	mov    $0x403394,%edi
  4018f0:	e8 db f3 ff ff       	callq  400cd0 <puts@plt>
  4018f5:	bf 01 00 00 00       	mov    $0x1,%edi
  4018fa:	e8 97 04 00 00       	callq  401d96 <validate>
  4018ff:	bf 00 00 00 00       	mov    $0x0,%edi
  401904:	e8 47 f5 ff ff       	callq  400e50 <exit@plt>

0000000000401909 <touch2>:
  401909:	48 83 ec 08          	sub    $0x8,%rsp
  40190d:	89 fa                	mov    %edi,%edx
  40190f:	c7 05 03 3c 20 00 02 	movl   $0x2,0x203c03(%rip)        # 60551c <vlevel>
  401916:	00 00 00 
  401919:	39 3d 05 3c 20 00    	cmp    %edi,0x203c05(%rip)        # 605524 <cookie>
  40191f:	75 20                	jne    401941 <touch2+0x38>
  401921:	be b8 33 40 00       	mov    $0x4033b8,%esi
  401926:	bf 01 00 00 00       	mov    $0x1,%edi
  40192b:	b8 00 00 00 00       	mov    $0x0,%eax
  401930:	e8 cb f4 ff ff       	callq  400e00 <__printf_chk@plt>
  401935:	bf 02 00 00 00       	mov    $0x2,%edi
  40193a:	e8 57 04 00 00       	callq  401d96 <validate>
  40193f:	eb 1e                	jmp    40195f <touch2+0x56>
  401941:	be e0 33 40 00       	mov    $0x4033e0,%esi
  401946:	bf 01 00 00 00       	mov    $0x1,%edi
  40194b:	b8 00 00 00 00       	mov    $0x0,%eax
  401950:	e8 ab f4 ff ff       	callq  400e00 <__printf_chk@plt>
  401955:	bf 02 00 00 00       	mov    $0x2,%edi
  40195a:	e8 f9 04 00 00       	callq  401e58 <fail>
  40195f:	bf 00 00 00 00       	mov    $0x0,%edi
  401964:	e8 e7 f4 ff ff       	callq  400e50 <exit@plt>

0000000000401969 <hexmatch>:
  401969:	41 54                	push   %r12
  40196b:	55                   	push   %rbp
  40196c:	53                   	push   %rbx
  40196d:	48 83 c4 80          	add    $0xffffffffffffff80,%rsp
  401971:	89 fd                	mov    %edi,%ebp
  401973:	48 89 f3             	mov    %rsi,%rbx
  401976:	64 48 8b 04 25 28 00 	mov    %fs:0x28,%rax
  40197d:	00 00 
  40197f:	48 89 44 24 78       	mov    %rax,0x78(%rsp)
  401984:	31 c0                	xor    %eax,%eax
  401986:	e8 35 f4 ff ff       	callq  400dc0 <random@plt>
  40198b:	48 89 c1             	mov    %rax,%rcx
  40198e:	48 ba 0b d7 a3 70 3d 	movabs $0xa3d70a3d70a3d70b,%rdx
  401995:	0a d7 a3 
  401998:	48 f7 ea             	imul   %rdx
  40199b:	48 01 ca             	add    %rcx,%rdx
  40199e:	48 c1 fa 06          	sar    $0x6,%rdx
  4019a2:	48 89 c8             	mov    %rcx,%rax
  4019a5:	48 c1 f8 3f          	sar    $0x3f,%rax
  4019a9:	48 29 c2             	sub    %rax,%rdx
  4019ac:	48 8d 04 92          	lea    (%rdx,%rdx,4),%rax
  4019b0:	48 8d 14 80          	lea    (%rax,%rax,4),%rdx
  4019b4:	48 8d 04 95 00 00 00 	lea    0x0(,%rdx,4),%rax
  4019bb:	00 
  4019bc:	48 29 c1             	sub    %rax,%rcx
  4019bf:	4c 8d 24 0c          	lea    (%rsp,%rcx,1),%r12
  4019c3:	41 89 e8             	mov    %ebp,%r8d
  4019c6:	b9 b1 33 40 00       	mov    $0x4033b1,%ecx
  4019cb:	48 c7 c2 ff ff ff ff 	mov    $0xffffffffffffffff,%rdx
  4019d2:	be 01 00 00 00       	mov    $0x1,%esi
  4019d7:	4c 89 e7             	mov    %r12,%rdi
  4019da:	b8 00 00 00 00       	mov    $0x0,%eax
  4019df:	e8 9c f4 ff ff       	callq  400e80 <__sprintf_chk@plt>
  4019e4:	ba 09 00 00 00       	mov    $0x9,%edx
  4019e9:	4c 89 e6             	mov    %r12,%rsi
  4019ec:	48 89 df             	mov    %rbx,%rdi
  4019ef:	e8 bc f2 ff ff       	callq  400cb0 <strncmp@plt>
  4019f4:	85 c0                	test   %eax,%eax
  4019f6:	0f 94 c0             	sete   %al
  4019f9:	48 8b 5c 24 78       	mov    0x78(%rsp),%rbx
  4019fe:	64 48 33 1c 25 28 00 	xor    %fs:0x28,%rbx
  401a05:	00 00 
  401a07:	74 05                	je     401a0e <hexmatch+0xa5>
  401a09:	e8 e2 f2 ff ff       	callq  400cf0 <__stack_chk_fail@plt>
  401a0e:	0f b6 c0             	movzbl %al,%eax
  401a11:	48 83 ec 80          	sub    $0xffffffffffffff80,%rsp
  401a15:	5b                   	pop    %rbx
  401a16:	5d                   	pop    %rbp
  401a17:	41 5c                	pop    %r12
  401a19:	c3                   	retq   

0000000000401a1a <touch3>:
  401a1a:	53                   	push   %rbx
  401a1b:	48 89 fb             	mov    %rdi,%rbx
  401a1e:	c7 05 f4 3a 20 00 03 	movl   $0x3,0x203af4(%rip)        # 60551c <vlevel>
  401a25:	00 00 00 
  401a28:	48 89 fe             	mov    %rdi,%rsi
  401a2b:	8b 3d f3 3a 20 00    	mov    0x203af3(%rip),%edi        # 605524 <cookie>
  401a31:	e8 33 ff ff ff       	callq  401969 <hexmatch>
  401a36:	85 c0                	test   %eax,%eax
  401a38:	74 23                	je     401a5d <touch3+0x43>
  401a3a:	48 89 da             	mov    %rbx,%rdx
  401a3d:	be 08 34 40 00       	mov    $0x403408,%esi
  401a42:	bf 01 00 00 00       	mov    $0x1,%edi
  401a47:	b8 00 00 00 00       	mov    $0x0,%eax
  401a4c:	e8 af f3 ff ff       	callq  400e00 <__printf_chk@plt>
  401a51:	bf 03 00 00 00       	mov    $0x3,%edi
  401a56:	e8 3b 03 00 00       	callq  401d96 <validate>
  401a5b:	eb 21                	jmp    401a7e <touch3+0x64>
  401a5d:	48 89 da             	mov    %rbx,%rdx
  401a60:	be 30 34 40 00       	mov    $0x403430,%esi
  401a65:	bf 01 00 00 00       	mov    $0x1,%edi
  401a6a:	b8 00 00 00 00       	mov    $0x0,%eax
  401a6f:	e8 8c f3 ff ff       	callq  400e00 <__printf_chk@plt>
  401a74:	bf 03 00 00 00       	mov    $0x3,%edi
  401a79:	e8 da 03 00 00       	callq  401e58 <fail>
  401a7e:	bf 00 00 00 00       	mov    $0x0,%edi
  401a83:	e8 c8 f3 ff ff       	callq  400e50 <exit@plt>

0000000000401a88 <test>:
  401a88:	48 83 ec 08          	sub    $0x8,%rsp
  401a8c:	b8 00 00 00 00       	mov    $0x0,%eax
  401a91:	e8 31 fe ff ff       	callq  4018c7 <getbuf>
  401a96:	89 c2                	mov    %eax,%edx
  401a98:	be 58 34 40 00       	mov    $0x403458,%esi
  401a9d:	bf 01 00 00 00       	mov    $0x1,%edi
  401aa2:	b8 00 00 00 00       	mov    $0x0,%eax
  401aa7:	e8 54 f3 ff ff       	callq  400e00 <__printf_chk@plt>
  401aac:	48 83 c4 08          	add    $0x8,%rsp
  401ab0:	c3                   	retq   

0000000000401ab1 <save_char>:
  401ab1:	8b 05 8d 46 20 00    	mov    0x20468d(%rip),%eax        # 606144 <gets_cnt>
  401ab7:	3d ff 03 00 00       	cmp    $0x3ff,%eax
  401abc:	7f 49                	jg     401b07 <save_char+0x56>
  401abe:	8d 14 40             	lea    (%rax,%rax,2),%edx
  401ac1:	89 f9                	mov    %edi,%ecx
  401ac3:	c0 e9 04             	shr    $0x4,%cl
  401ac6:	83 e1 0f             	and    $0xf,%ecx
  401ac9:	0f b6 b1 80 37 40 00 	movzbl 0x403780(%rcx),%esi
  401ad0:	48 63 ca             	movslq %edx,%rcx
  401ad3:	40 88 b1 40 55 60 00 	mov    %sil,0x605540(%rcx)
  401ada:	8d 4a 01             	lea    0x1(%rdx),%ecx
  401add:	83 e7 0f             	and    $0xf,%edi
  401ae0:	0f b6 b7 80 37 40 00 	movzbl 0x403780(%rdi),%esi
  401ae7:	48 63 c9             	movslq %ecx,%rcx
  401aea:	40 88 b1 40 55 60 00 	mov    %sil,0x605540(%rcx)
  401af1:	83 c2 02             	add    $0x2,%edx
  401af4:	48 63 d2             	movslq %edx,%rdx
  401af7:	c6 82 40 55 60 00 20 	movb   $0x20,0x605540(%rdx)
  401afe:	83 c0 01             	add    $0x1,%eax
  401b01:	89 05 3d 46 20 00    	mov    %eax,0x20463d(%rip)        # 606144 <gets_cnt>
  401b07:	f3 c3                	repz retq 

0000000000401b09 <save_term>:
  401b09:	8b 05 35 46 20 00    	mov    0x204635(%rip),%eax        # 606144 <gets_cnt>
  401b0f:	8d 04 40             	lea    (%rax,%rax,2),%eax
  401b12:	48 98                	cltq   
  401b14:	c6 80 40 55 60 00 00 	movb   $0x0,0x605540(%rax)
  401b1b:	c3                   	retq   

0000000000401b1c <check_fail>:
  401b1c:	48 83 ec 08          	sub    $0x8,%rsp
  401b20:	0f be 15 21 46 20 00 	movsbl 0x204621(%rip),%edx        # 606148 <target_prefix>
  401b27:	41 b8 40 55 60 00    	mov    $0x605540,%r8d
  401b2d:	8b 0d e5 39 20 00    	mov    0x2039e5(%rip),%ecx        # 605518 <check_level>
  401b33:	be 7b 34 40 00       	mov    $0x40347b,%esi
  401b38:	bf 01 00 00 00       	mov    $0x1,%edi
  401b3d:	b8 00 00 00 00       	mov    $0x0,%eax
  401b42:	e8 b9 f2 ff ff       	callq  400e00 <__printf_chk@plt>
  401b47:	bf 01 00 00 00       	mov    $0x1,%edi
  401b4c:	e8 ff f2 ff ff       	callq  400e50 <exit@plt>

0000000000401b51 <Gets>:
  401b51:	41 54                	push   %r12
  401b53:	55                   	push   %rbp
  401b54:	53                   	push   %rbx
  401b55:	49 89 fc             	mov    %rdi,%r12
  401b58:	c7 05 e2 45 20 00 00 	movl   $0x0,0x2045e2(%rip)        # 606144 <gets_cnt>
  401b5f:	00 00 00 
  401b62:	48 89 fb             	mov    %rdi,%rbx
  401b65:	eb 11                	jmp    401b78 <Gets+0x27>
  401b67:	48 8d 6b 01          	lea    0x1(%rbx),%rbp
  401b6b:	88 03                	mov    %al,(%rbx)
  401b6d:	0f b6 f8             	movzbl %al,%edi
  401b70:	e8 3c ff ff ff       	callq  401ab1 <save_char>
  401b75:	48 89 eb             	mov    %rbp,%rbx
  401b78:	48 8b 3d 91 39 20 00 	mov    0x203991(%rip),%rdi        # 605510 <infile>
  401b7f:	e8 4c f2 ff ff       	callq  400dd0 <_IO_getc@plt>
  401b84:	83 f8 ff             	cmp    $0xffffffff,%eax
  401b87:	74 05                	je     401b8e <Gets+0x3d>
  401b89:	83 f8 0a             	cmp    $0xa,%eax
  401b8c:	75 d9                	jne    401b67 <Gets+0x16>
  401b8e:	c6 03 00             	movb   $0x0,(%rbx)
  401b91:	b8 00 00 00 00       	mov    $0x0,%eax
  401b96:	e8 6e ff ff ff       	callq  401b09 <save_term>
  401b9b:	4c 89 e0             	mov    %r12,%rax
  401b9e:	5b                   	pop    %rbx
  401b9f:	5d                   	pop    %rbp
  401ba0:	41 5c                	pop    %r12
  401ba2:	c3                   	retq   

0000000000401ba3 <notify_server>:
  401ba3:	53                   	push   %rbx
  401ba4:	48 81 ec 10 40 00 00 	sub    $0x4010,%rsp
  401bab:	64 48 8b 04 25 28 00 	mov    %fs:0x28,%rax
  401bb2:	00 00 
  401bb4:	48 89 84 24 08 40 00 	mov    %rax,0x4008(%rsp)
  401bbb:	00 
  401bbc:	31 c0                	xor    %eax,%eax
  401bbe:	83 3d 63 39 20 00 00 	cmpl   $0x0,0x203963(%rip)        # 605528 <is_checker>
  401bc5:	0f 85 aa 01 00 00    	jne    401d75 <notify_server+0x1d2>
  401bcb:	89 fb                	mov    %edi,%ebx
  401bcd:	8b 05 71 45 20 00    	mov    0x204571(%rip),%eax        # 606144 <gets_cnt>
  401bd3:	83 c0 64             	add    $0x64,%eax
  401bd6:	3d 00 20 00 00       	cmp    $0x2000,%eax
  401bdb:	7e 1e                	jle    401bfb <notify_server+0x58>
  401bdd:	be b0 35 40 00       	mov    $0x4035b0,%esi
  401be2:	bf 01 00 00 00       	mov    $0x1,%edi
  401be7:	b8 00 00 00 00       	mov    $0x0,%eax
  401bec:	e8 0f f2 ff ff       	callq  400e00 <__printf_chk@plt>
  401bf1:	bf 01 00 00 00       	mov    $0x1,%edi
  401bf6:	e8 55 f2 ff ff       	callq  400e50 <exit@plt>
  401bfb:	0f be 05 46 45 20 00 	movsbl 0x204546(%rip),%eax        # 606148 <target_prefix>
  401c02:	83 3d 9f 38 20 00 00 	cmpl   $0x0,0x20389f(%rip)        # 6054a8 <notify>
  401c09:	74 08                	je     401c13 <notify_server+0x70>
  401c0b:	8b 15 0f 39 20 00    	mov    0x20390f(%rip),%edx        # 605520 <authkey>
  401c11:	eb 05                	jmp    401c18 <notify_server+0x75>
  401c13:	ba ff ff ff ff       	mov    $0xffffffff,%edx
  401c18:	85 db                	test   %ebx,%ebx
  401c1a:	74 08                	je     401c24 <notify_server+0x81>
  401c1c:	41 b9 91 34 40 00    	mov    $0x403491,%r9d
  401c22:	eb 06                	jmp    401c2a <notify_server+0x87>
  401c24:	41 b9 96 34 40 00    	mov    $0x403496,%r9d
  401c2a:	68 40 55 60 00       	pushq  $0x605540
  401c2f:	56                   	push   %rsi
  401c30:	50                   	push   %rax
  401c31:	52                   	push   %rdx
  401c32:	44 8b 05 2f 35 20 00 	mov    0x20352f(%rip),%r8d        # 605168 <target_id>
  401c39:	b9 9b 34 40 00       	mov    $0x40349b,%ecx
  401c3e:	ba 00 20 00 00       	mov    $0x2000,%edx
  401c43:	be 01 00 00 00       	mov    $0x1,%esi
  401c48:	48 8d 7c 24 20       	lea    0x20(%rsp),%rdi
  401c4d:	b8 00 00 00 00       	mov    $0x0,%eax
  401c52:	e8 29 f2 ff ff       	callq  400e80 <__sprintf_chk@plt>
  401c57:	48 83 c4 20          	add    $0x20,%rsp
  401c5b:	83 3d 46 38 20 00 00 	cmpl   $0x0,0x203846(%rip)        # 6054a8 <notify>
  401c62:	0f 84 81 00 00 00    	je     401ce9 <notify_server+0x146>
  401c68:	85 db                	test   %ebx,%ebx
  401c6a:	74 6e                	je     401cda <notify_server+0x137>
  401c6c:	4c 8d 8c 24 00 20 00 	lea    0x2000(%rsp),%r9
  401c73:	00 
  401c74:	41 b8 00 00 00 00    	mov    $0x0,%r8d
  401c7a:	48 89 e1             	mov    %rsp,%rcx
  401c7d:	48 8b 15 ec 34 20 00 	mov    0x2034ec(%rip),%rdx        # 605170 <lab>
  401c84:	48 8b 35 ed 34 20 00 	mov    0x2034ed(%rip),%rsi        # 605178 <course>
  401c8b:	48 8b 3d ce 34 20 00 	mov    0x2034ce(%rip),%rdi        # 605160 <user_id>
  401c92:	e8 ef 10 00 00       	callq  402d86 <driver_post>
  401c97:	85 c0                	test   %eax,%eax
  401c99:	79 26                	jns    401cc1 <notify_server+0x11e>
  401c9b:	48 8d 94 24 00 20 00 	lea    0x2000(%rsp),%rdx
  401ca2:	00 
  401ca3:	be b7 34 40 00       	mov    $0x4034b7,%esi
  401ca8:	bf 01 00 00 00       	mov    $0x1,%edi
  401cad:	b8 00 00 00 00       	mov    $0x0,%eax
  401cb2:	e8 49 f1 ff ff       	callq  400e00 <__printf_chk@plt>
  401cb7:	bf 01 00 00 00       	mov    $0x1,%edi
  401cbc:	e8 8f f1 ff ff       	callq  400e50 <exit@plt>
  401cc1:	bf e0 35 40 00       	mov    $0x4035e0,%edi
  401cc6:	e8 05 f0 ff ff       	callq  400cd0 <puts@plt>
  401ccb:	bf c3 34 40 00       	mov    $0x4034c3,%edi
  401cd0:	e8 fb ef ff ff       	callq  400cd0 <puts@plt>
  401cd5:	e9 9b 00 00 00       	jmpq   401d75 <notify_server+0x1d2>
  401cda:	bf cd 34 40 00       	mov    $0x4034cd,%edi
  401cdf:	e8 ec ef ff ff       	callq  400cd0 <puts@plt>
  401ce4:	e9 8c 00 00 00       	jmpq   401d75 <notify_server+0x1d2>
  401ce9:	85 db                	test   %ebx,%ebx
  401ceb:	74 07                	je     401cf4 <notify_server+0x151>
  401ced:	ba 91 34 40 00       	mov    $0x403491,%edx
  401cf2:	eb 05                	jmp    401cf9 <notify_server+0x156>
  401cf4:	ba 96 34 40 00       	mov    $0x403496,%edx
  401cf9:	be 18 36 40 00       	mov    $0x403618,%esi
  401cfe:	bf 01 00 00 00       	mov    $0x1,%edi
  401d03:	b8 00 00 00 00       	mov    $0x0,%eax
  401d08:	e8 f3 f0 ff ff       	callq  400e00 <__printf_chk@plt>
  401d0d:	48 8b 15 4c 34 20 00 	mov    0x20344c(%rip),%rdx        # 605160 <user_id>
  401d14:	be d4 34 40 00       	mov    $0x4034d4,%esi
  401d19:	bf 01 00 00 00       	mov    $0x1,%edi
  401d1e:	b8 00 00 00 00       	mov    $0x0,%eax
  401d23:	e8 d8 f0 ff ff       	callq  400e00 <__printf_chk@plt>
  401d28:	48 8b 15 49 34 20 00 	mov    0x203449(%rip),%rdx        # 605178 <course>
  401d2f:	be e1 34 40 00       	mov    $0x4034e1,%esi
  401d34:	bf 01 00 00 00       	mov    $0x1,%edi
  401d39:	b8 00 00 00 00       	mov    $0x0,%eax
  401d3e:	e8 bd f0 ff ff       	callq  400e00 <__printf_chk@plt>
  401d43:	48 8b 15 26 34 20 00 	mov    0x203426(%rip),%rdx        # 605170 <lab>
  401d4a:	be ed 34 40 00       	mov    $0x4034ed,%esi
  401d4f:	bf 01 00 00 00       	mov    $0x1,%edi
  401d54:	b8 00 00 00 00       	mov    $0x0,%eax
  401d59:	e8 a2 f0 ff ff       	callq  400e00 <__printf_chk@plt>
  401d5e:	48 89 e2             	mov    %rsp,%rdx
  401d61:	be f6 34 40 00       	mov    $0x4034f6,%esi
  401d66:	bf 01 00 00 00       	mov    $0x1,%edi
  401d6b:	b8 00 00 00 00       	mov    $0x0,%eax
  401d70:	e8 8b f0 ff ff       	callq  400e00 <__printf_chk@plt>
  401d75:	48 8b 84 24 08 40 00 	mov    0x4008(%rsp),%rax
  401d7c:	00 
  401d7d:	64 48 33 04 25 28 00 	xor    %fs:0x28,%rax
  401d84:	00 00 
  401d86:	74 05                	je     401d8d <notify_server+0x1ea>
  401d88:	e8 63 ef ff ff       	callq  400cf0 <__stack_chk_fail@plt>
  401d8d:	48 81 c4 10 40 00 00 	add    $0x4010,%rsp
  401d94:	5b                   	pop    %rbx
  401d95:	c3                   	retq   

0000000000401d96 <validate>:
  401d96:	53                   	push   %rbx
  401d97:	89 fb                	mov    %edi,%ebx
  401d99:	83 3d 88 37 20 00 00 	cmpl   $0x0,0x203788(%rip)        # 605528 <is_checker>
  401da0:	74 6b                	je     401e0d <validate+0x77>
  401da2:	39 3d 74 37 20 00    	cmp    %edi,0x203774(%rip)        # 60551c <vlevel>
  401da8:	74 14                	je     401dbe <validate+0x28>
  401daa:	bf 02 35 40 00       	mov    $0x403502,%edi
  401daf:	e8 1c ef ff ff       	callq  400cd0 <puts@plt>
  401db4:	b8 00 00 00 00       	mov    $0x0,%eax
  401db9:	e8 5e fd ff ff       	callq  401b1c <check_fail>
  401dbe:	8b 15 54 37 20 00    	mov    0x203754(%rip),%edx        # 605518 <check_level>
  401dc4:	39 d7                	cmp    %edx,%edi
  401dc6:	74 20                	je     401de8 <validate+0x52>
  401dc8:	89 f9                	mov    %edi,%ecx
  401dca:	be 40 36 40 00       	mov    $0x403640,%esi
  401dcf:	bf 01 00 00 00       	mov    $0x1,%edi
  401dd4:	b8 00 00 00 00       	mov    $0x0,%eax
  401dd9:	e8 22 f0 ff ff       	callq  400e00 <__printf_chk@plt>
  401dde:	b8 00 00 00 00       	mov    $0x0,%eax
  401de3:	e8 34 fd ff ff       	callq  401b1c <check_fail>
  401de8:	0f be 15 59 43 20 00 	movsbl 0x204359(%rip),%edx        # 606148 <target_prefix>
  401def:	41 b8 40 55 60 00    	mov    $0x605540,%r8d
  401df5:	89 f9                	mov    %edi,%ecx
  401df7:	be 20 35 40 00       	mov    $0x403520,%esi
  401dfc:	bf 01 00 00 00       	mov    $0x1,%edi
  401e01:	b8 00 00 00 00       	mov    $0x0,%eax
  401e06:	e8 f5 ef ff ff       	callq  400e00 <__printf_chk@plt>
  401e0b:	eb 49                	jmp    401e56 <validate+0xc0>
  401e0d:	3b 3d 09 37 20 00    	cmp    0x203709(%rip),%edi        # 60551c <vlevel>
  401e13:	74 18                	je     401e2d <validate+0x97>
  401e15:	bf 02 35 40 00       	mov    $0x403502,%edi
  401e1a:	e8 b1 ee ff ff       	callq  400cd0 <puts@plt>
  401e1f:	89 de                	mov    %ebx,%esi
  401e21:	bf 00 00 00 00       	mov    $0x0,%edi
  401e26:	e8 78 fd ff ff       	callq  401ba3 <notify_server>
  401e2b:	eb 29                	jmp    401e56 <validate+0xc0>
  401e2d:	0f be 0d 14 43 20 00 	movsbl 0x204314(%rip),%ecx        # 606148 <target_prefix>
  401e34:	89 fa                	mov    %edi,%edx
  401e36:	be 68 36 40 00       	mov    $0x403668,%esi
  401e3b:	bf 01 00 00 00       	mov    $0x1,%edi
  401e40:	b8 00 00 00 00       	mov    $0x0,%eax
  401e45:	e8 b6 ef ff ff       	callq  400e00 <__printf_chk@plt>
  401e4a:	89 de                	mov    %ebx,%esi
  401e4c:	bf 01 00 00 00       	mov    $0x1,%edi
  401e51:	e8 4d fd ff ff       	callq  401ba3 <notify_server>
  401e56:	5b                   	pop    %rbx
  401e57:	c3                   	retq   

0000000000401e58 <fail>:
  401e58:	48 83 ec 08          	sub    $0x8,%rsp
  401e5c:	83 3d c5 36 20 00 00 	cmpl   $0x0,0x2036c5(%rip)        # 605528 <is_checker>
  401e63:	74 0a                	je     401e6f <fail+0x17>
  401e65:	b8 00 00 00 00       	mov    $0x0,%eax
  401e6a:	e8 ad fc ff ff       	callq  401b1c <check_fail>
  401e6f:	89 fe                	mov    %edi,%esi
  401e71:	bf 00 00 00 00       	mov    $0x0,%edi
  401e76:	e8 28 fd ff ff       	callq  401ba3 <notify_server>
  401e7b:	48 83 c4 08          	add    $0x8,%rsp
  401e7f:	c3                   	retq   

0000000000401e80 <bushandler>:
  401e80:	48 83 ec 08          	sub    $0x8,%rsp
  401e84:	83 3d 9d 36 20 00 00 	cmpl   $0x0,0x20369d(%rip)        # 605528 <is_checker>
  401e8b:	74 14                	je     401ea1 <bushandler+0x21>
  401e8d:	bf 35 35 40 00       	mov    $0x403535,%edi
  401e92:	e8 39 ee ff ff       	callq  400cd0 <puts@plt>
  401e97:	b8 00 00 00 00       	mov    $0x0,%eax
  401e9c:	e8 7b fc ff ff       	callq  401b1c <check_fail>
  401ea1:	bf a0 36 40 00       	mov    $0x4036a0,%edi
  401ea6:	e8 25 ee ff ff       	callq  400cd0 <puts@plt>
  401eab:	bf 3f 35 40 00       	mov    $0x40353f,%edi
  401eb0:	e8 1b ee ff ff       	callq  400cd0 <puts@plt>
  401eb5:	be 00 00 00 00       	mov    $0x0,%esi
  401eba:	bf 00 00 00 00       	mov    $0x0,%edi
  401ebf:	e8 df fc ff ff       	callq  401ba3 <notify_server>
  401ec4:	bf 01 00 00 00       	mov    $0x1,%edi
  401ec9:	e8 82 ef ff ff       	callq  400e50 <exit@plt>

0000000000401ece <seghandler>:
  401ece:	48 83 ec 08          	sub    $0x8,%rsp
  401ed2:	83 3d 4f 36 20 00 00 	cmpl   $0x0,0x20364f(%rip)        # 605528 <is_checker>
  401ed9:	74 14                	je     401eef <seghandler+0x21>
  401edb:	bf 55 35 40 00       	mov    $0x403555,%edi
  401ee0:	e8 eb ed ff ff       	callq  400cd0 <puts@plt>
  401ee5:	b8 00 00 00 00       	mov    $0x0,%eax
  401eea:	e8 2d fc ff ff       	callq  401b1c <check_fail>
  401eef:	bf c0 36 40 00       	mov    $0x4036c0,%edi
  401ef4:	e8 d7 ed ff ff       	callq  400cd0 <puts@plt>
  401ef9:	bf 3f 35 40 00       	mov    $0x40353f,%edi
  401efe:	e8 cd ed ff ff       	callq  400cd0 <puts@plt>
  401f03:	be 00 00 00 00       	mov    $0x0,%esi
  401f08:	bf 00 00 00 00       	mov    $0x0,%edi
  401f0d:	e8 91 fc ff ff       	callq  401ba3 <notify_server>
  401f12:	bf 01 00 00 00       	mov    $0x1,%edi
  401f17:	e8 34 ef ff ff       	callq  400e50 <exit@plt>

0000000000401f1c <illegalhandler>:
  401f1c:	48 83 ec 08          	sub    $0x8,%rsp
  401f20:	83 3d 01 36 20 00 00 	cmpl   $0x0,0x203601(%rip)        # 605528 <is_checker>
  401f27:	74 14                	je     401f3d <illegalhandler+0x21>
  401f29:	bf 68 35 40 00       	mov    $0x403568,%edi
  401f2e:	e8 9d ed ff ff       	callq  400cd0 <puts@plt>
  401f33:	b8 00 00 00 00       	mov    $0x0,%eax
  401f38:	e8 df fb ff ff       	callq  401b1c <check_fail>
  401f3d:	bf e8 36 40 00       	mov    $0x4036e8,%edi
  401f42:	e8 89 ed ff ff       	callq  400cd0 <puts@plt>
  401f47:	bf 3f 35 40 00       	mov    $0x40353f,%edi
  401f4c:	e8 7f ed ff ff       	callq  400cd0 <puts@plt>
  401f51:	be 00 00 00 00       	mov    $0x0,%esi
  401f56:	bf 00 00 00 00       	mov    $0x0,%edi
  401f5b:	e8 43 fc ff ff       	callq  401ba3 <notify_server>
  401f60:	bf 01 00 00 00       	mov    $0x1,%edi
  401f65:	e8 e6 ee ff ff       	callq  400e50 <exit@plt>

0000000000401f6a <sigalrmhandler>:
  401f6a:	48 83 ec 08          	sub    $0x8,%rsp
  401f6e:	83 3d b3 35 20 00 00 	cmpl   $0x0,0x2035b3(%rip)        # 605528 <is_checker>
  401f75:	74 14                	je     401f8b <sigalrmhandler+0x21>
  401f77:	bf 7c 35 40 00       	mov    $0x40357c,%edi
  401f7c:	e8 4f ed ff ff       	callq  400cd0 <puts@plt>
  401f81:	b8 00 00 00 00       	mov    $0x0,%eax
  401f86:	e8 91 fb ff ff       	callq  401b1c <check_fail>
  401f8b:	ba 05 00 00 00       	mov    $0x5,%edx
  401f90:	be 18 37 40 00       	mov    $0x403718,%esi
  401f95:	bf 01 00 00 00       	mov    $0x1,%edi
  401f9a:	b8 00 00 00 00       	mov    $0x0,%eax
  401f9f:	e8 5c ee ff ff       	callq  400e00 <__printf_chk@plt>
  401fa4:	be 00 00 00 00       	mov    $0x0,%esi
  401fa9:	bf 00 00 00 00       	mov    $0x0,%edi
  401fae:	e8 f0 fb ff ff       	callq  401ba3 <notify_server>
  401fb3:	bf 01 00 00 00       	mov    $0x1,%edi
  401fb8:	e8 93 ee ff ff       	callq  400e50 <exit@plt>

0000000000401fbd <launch>:
  401fbd:	55                   	push   %rbp
  401fbe:	48 89 e5             	mov    %rsp,%rbp
  401fc1:	48 83 ec 10          	sub    $0x10,%rsp
  401fc5:	48 89 fa             	mov    %rdi,%rdx
  401fc8:	64 48 8b 04 25 28 00 	mov    %fs:0x28,%rax
  401fcf:	00 00 
  401fd1:	48 89 45 f8          	mov    %rax,-0x8(%rbp)
  401fd5:	31 c0                	xor    %eax,%eax
  401fd7:	48 8d 47 1e          	lea    0x1e(%rdi),%rax
  401fdb:	48 83 e0 f0          	and    $0xfffffffffffffff0,%rax
  401fdf:	48 29 c4             	sub    %rax,%rsp
  401fe2:	48 8d 7c 24 0f       	lea    0xf(%rsp),%rdi
  401fe7:	48 83 e7 f0          	and    $0xfffffffffffffff0,%rdi
  401feb:	be f4 00 00 00       	mov    $0xf4,%esi
  401ff0:	e8 1b ed ff ff       	callq  400d10 <memset@plt>
  401ff5:	48 8b 05 c4 34 20 00 	mov    0x2034c4(%rip),%rax        # 6054c0 <stdin@@GLIBC_2.2.5>
  401ffc:	48 39 05 0d 35 20 00 	cmp    %rax,0x20350d(%rip)        # 605510 <infile>
  402003:	75 14                	jne    402019 <launch+0x5c>
  402005:	be 84 35 40 00       	mov    $0x403584,%esi
  40200a:	bf 01 00 00 00       	mov    $0x1,%edi
  40200f:	b8 00 00 00 00       	mov    $0x0,%eax
  402014:	e8 e7 ed ff ff       	callq  400e00 <__printf_chk@plt>
  402019:	c7 05 f9 34 20 00 00 	movl   $0x0,0x2034f9(%rip)        # 60551c <vlevel>
  402020:	00 00 00 
  402023:	b8 00 00 00 00       	mov    $0x0,%eax
  402028:	e8 5b fa ff ff       	callq  401a88 <test>
  40202d:	83 3d f4 34 20 00 00 	cmpl   $0x0,0x2034f4(%rip)        # 605528 <is_checker>
  402034:	74 14                	je     40204a <launch+0x8d>
  402036:	bf 91 35 40 00       	mov    $0x403591,%edi
  40203b:	e8 90 ec ff ff       	callq  400cd0 <puts@plt>
  402040:	b8 00 00 00 00       	mov    $0x0,%eax
  402045:	e8 d2 fa ff ff       	callq  401b1c <check_fail>
  40204a:	bf 9c 35 40 00       	mov    $0x40359c,%edi
  40204f:	e8 7c ec ff ff       	callq  400cd0 <puts@plt>
  402054:	48 8b 45 f8          	mov    -0x8(%rbp),%rax
  402058:	64 48 33 04 25 28 00 	xor    %fs:0x28,%rax
  40205f:	00 00 
  402061:	74 05                	je     402068 <launch+0xab>
  402063:	e8 88 ec ff ff       	callq  400cf0 <__stack_chk_fail@plt>
  402068:	c9                   	leaveq 
  402069:	c3                   	retq   

000000000040206a <stable_launch>:
  40206a:	53                   	push   %rbx
  40206b:	48 89 3d 96 34 20 00 	mov    %rdi,0x203496(%rip)        # 605508 <global_offset>
  402072:	41 b9 00 00 00 00    	mov    $0x0,%r9d
  402078:	41 b8 00 00 00 00    	mov    $0x0,%r8d
  40207e:	b9 32 01 00 00       	mov    $0x132,%ecx
  402083:	ba 07 00 00 00       	mov    $0x7,%edx
  402088:	be 00 00 10 00       	mov    $0x100000,%esi
  40208d:	bf 00 60 58 55       	mov    $0x55586000,%edi
  402092:	e8 69 ec ff ff       	callq  400d00 <mmap@plt>
  402097:	48 89 c3             	mov    %rax,%rbx
  40209a:	48 3d 00 60 58 55    	cmp    $0x55586000,%rax
  4020a0:	74 37                	je     4020d9 <stable_launch+0x6f>
  4020a2:	be 00 00 10 00       	mov    $0x100000,%esi
  4020a7:	48 89 c7             	mov    %rax,%rdi
  4020aa:	e8 41 ed ff ff       	callq  400df0 <munmap@plt>
  4020af:	b9 00 60 58 55       	mov    $0x55586000,%ecx
  4020b4:	ba 50 37 40 00       	mov    $0x403750,%edx
  4020b9:	be 01 00 00 00       	mov    $0x1,%esi
  4020be:	48 8b 3d 1b 34 20 00 	mov    0x20341b(%rip),%rdi        # 6054e0 <stderr@@GLIBC_2.2.5>
  4020c5:	b8 00 00 00 00       	mov    $0x0,%eax
  4020ca:	e8 a1 ed ff ff       	callq  400e70 <__fprintf_chk@plt>
  4020cf:	bf 01 00 00 00       	mov    $0x1,%edi
  4020d4:	e8 77 ed ff ff       	callq  400e50 <exit@plt>
  4020d9:	48 8d 90 f8 ff 0f 00 	lea    0xffff8(%rax),%rdx
  4020e0:	48 89 15 69 40 20 00 	mov    %rdx,0x204069(%rip)        # 606150 <stack_top>
  4020e7:	48 89 e0             	mov    %rsp,%rax
  4020ea:	48 89 d4             	mov    %rdx,%rsp
  4020ed:	48 89 c2             	mov    %rax,%rdx
  4020f0:	48 89 15 09 34 20 00 	mov    %rdx,0x203409(%rip)        # 605500 <global_save_stack>
  4020f7:	48 8b 3d 0a 34 20 00 	mov    0x20340a(%rip),%rdi        # 605508 <global_offset>
  4020fe:	e8 ba fe ff ff       	callq  401fbd <launch>
  402103:	48 8b 05 f6 33 20 00 	mov    0x2033f6(%rip),%rax        # 605500 <global_save_stack>
  40210a:	48 89 c4             	mov    %rax,%rsp
  40210d:	be 00 00 10 00       	mov    $0x100000,%esi
  402112:	48 89 df             	mov    %rbx,%rdi
  402115:	e8 d6 ec ff ff       	callq  400df0 <munmap@plt>
  40211a:	5b                   	pop    %rbx
  40211b:	c3                   	retq   

000000000040211c <rio_readinitb>:
  40211c:	89 37                	mov    %esi,(%rdi)
  40211e:	c7 47 04 00 00 00 00 	movl   $0x0,0x4(%rdi)
  402125:	48 8d 47 10          	lea    0x10(%rdi),%rax
  402129:	48 89 47 08          	mov    %rax,0x8(%rdi)
  40212d:	c3                   	retq   

000000000040212e <sigalrm_handler>:
  40212e:	48 83 ec 08          	sub    $0x8,%rsp
  402132:	b9 00 00 00 00       	mov    $0x0,%ecx
  402137:	ba 90 37 40 00       	mov    $0x403790,%edx
  40213c:	be 01 00 00 00       	mov    $0x1,%esi
  402141:	48 8b 3d 98 33 20 00 	mov    0x203398(%rip),%rdi        # 6054e0 <stderr@@GLIBC_2.2.5>
  402148:	b8 00 00 00 00       	mov    $0x0,%eax
  40214d:	e8 1e ed ff ff       	callq  400e70 <__fprintf_chk@plt>
  402152:	bf 01 00 00 00       	mov    $0x1,%edi
  402157:	e8 f4 ec ff ff       	callq  400e50 <exit@plt>

000000000040215c <rio_writen>:
  40215c:	41 55                	push   %r13
  40215e:	41 54                	push   %r12
  402160:	55                   	push   %rbp
  402161:	53                   	push   %rbx
  402162:	48 83 ec 08          	sub    $0x8,%rsp
  402166:	41 89 fc             	mov    %edi,%r12d
  402169:	48 89 f5             	mov    %rsi,%rbp
  40216c:	49 89 d5             	mov    %rdx,%r13
  40216f:	48 89 d3             	mov    %rdx,%rbx
  402172:	eb 28                	jmp    40219c <rio_writen+0x40>
  402174:	48 89 da             	mov    %rbx,%rdx
  402177:	48 89 ee             	mov    %rbp,%rsi
  40217a:	44 89 e7             	mov    %r12d,%edi
  40217d:	e8 5e eb ff ff       	callq  400ce0 <write@plt>
  402182:	48 85 c0             	test   %rax,%rax
  402185:	7f 0f                	jg     402196 <rio_writen+0x3a>
  402187:	e8 04 eb ff ff       	callq  400c90 <__errno_location@plt>
  40218c:	83 38 04             	cmpl   $0x4,(%rax)
  40218f:	75 15                	jne    4021a6 <rio_writen+0x4a>
  402191:	b8 00 00 00 00       	mov    $0x0,%eax
  402196:	48 29 c3             	sub    %rax,%rbx
  402199:	48 01 c5             	add    %rax,%rbp
  40219c:	48 85 db             	test   %rbx,%rbx
  40219f:	75 d3                	jne    402174 <rio_writen+0x18>
  4021a1:	4c 89 e8             	mov    %r13,%rax
  4021a4:	eb 07                	jmp    4021ad <rio_writen+0x51>
  4021a6:	48 c7 c0 ff ff ff ff 	mov    $0xffffffffffffffff,%rax
  4021ad:	48 83 c4 08          	add    $0x8,%rsp
  4021b1:	5b                   	pop    %rbx
  4021b2:	5d                   	pop    %rbp
  4021b3:	41 5c                	pop    %r12
  4021b5:	41 5d                	pop    %r13
  4021b7:	c3                   	retq   

00000000004021b8 <rio_read>:
  4021b8:	41 55                	push   %r13
  4021ba:	41 54                	push   %r12
  4021bc:	55                   	push   %rbp
  4021bd:	53                   	push   %rbx
  4021be:	48 83 ec 08          	sub    $0x8,%rsp
  4021c2:	48 89 fb             	mov    %rdi,%rbx
  4021c5:	49 89 f5             	mov    %rsi,%r13
  4021c8:	49 89 d4             	mov    %rdx,%r12
  4021cb:	eb 2e                	jmp    4021fb <rio_read+0x43>
  4021cd:	48 8d 6b 10          	lea    0x10(%rbx),%rbp
  4021d1:	8b 3b                	mov    (%rbx),%edi
  4021d3:	ba 00 20 00 00       	mov    $0x2000,%edx
  4021d8:	48 89 ee             	mov    %rbp,%rsi
  4021db:	e8 60 eb ff ff       	callq  400d40 <read@plt>
  4021e0:	89 43 04             	mov    %eax,0x4(%rbx)
  4021e3:	85 c0                	test   %eax,%eax
  4021e5:	79 0c                	jns    4021f3 <rio_read+0x3b>
  4021e7:	e8 a4 ea ff ff       	callq  400c90 <__errno_location@plt>
  4021ec:	83 38 04             	cmpl   $0x4,(%rax)
  4021ef:	74 0a                	je     4021fb <rio_read+0x43>
  4021f1:	eb 37                	jmp    40222a <rio_read+0x72>
  4021f3:	85 c0                	test   %eax,%eax
  4021f5:	74 3c                	je     402233 <rio_read+0x7b>
  4021f7:	48 89 6b 08          	mov    %rbp,0x8(%rbx)
  4021fb:	8b 6b 04             	mov    0x4(%rbx),%ebp
  4021fe:	85 ed                	test   %ebp,%ebp
  402200:	7e cb                	jle    4021cd <rio_read+0x15>
  402202:	89 e8                	mov    %ebp,%eax
  402204:	49 39 c4             	cmp    %rax,%r12
  402207:	77 03                	ja     40220c <rio_read+0x54>
  402209:	44 89 e5             	mov    %r12d,%ebp
  40220c:	4c 63 e5             	movslq %ebp,%r12
  40220f:	48 8b 73 08          	mov    0x8(%rbx),%rsi
  402213:	4c 89 e2             	mov    %r12,%rdx
  402216:	4c 89 ef             	mov    %r13,%rdi
  402219:	e8 82 eb ff ff       	callq  400da0 <memcpy@plt>
  40221e:	4c 01 63 08          	add    %r12,0x8(%rbx)
  402222:	29 6b 04             	sub    %ebp,0x4(%rbx)
  402225:	4c 89 e0             	mov    %r12,%rax
  402228:	eb 0e                	jmp    402238 <rio_read+0x80>
  40222a:	48 c7 c0 ff ff ff ff 	mov    $0xffffffffffffffff,%rax
  402231:	eb 05                	jmp    402238 <rio_read+0x80>
  402233:	b8 00 00 00 00       	mov    $0x0,%eax
  402238:	48 83 c4 08          	add    $0x8,%rsp
  40223c:	5b                   	pop    %rbx
  40223d:	5d                   	pop    %rbp
  40223e:	41 5c                	pop    %r12
  402240:	41 5d                	pop    %r13
  402242:	c3                   	retq   

0000000000402243 <rio_readlineb>:
  402243:	41 55                	push   %r13
  402245:	41 54                	push   %r12
  402247:	55                   	push   %rbp
  402248:	53                   	push   %rbx
  402249:	48 83 ec 18          	sub    $0x18,%rsp
  40224d:	49 89 fd             	mov    %rdi,%r13
  402250:	48 89 f5             	mov    %rsi,%rbp
  402253:	49 89 d4             	mov    %rdx,%r12
  402256:	64 48 8b 04 25 28 00 	mov    %fs:0x28,%rax
  40225d:	00 00 
  40225f:	48 89 44 24 08       	mov    %rax,0x8(%rsp)
  402264:	31 c0                	xor    %eax,%eax
  402266:	bb 01 00 00 00       	mov    $0x1,%ebx
  40226b:	eb 3f                	jmp    4022ac <rio_readlineb+0x69>
  40226d:	ba 01 00 00 00       	mov    $0x1,%edx
  402272:	48 8d 74 24 07       	lea    0x7(%rsp),%rsi
  402277:	4c 89 ef             	mov    %r13,%rdi
  40227a:	e8 39 ff ff ff       	callq  4021b8 <rio_read>
  40227f:	83 f8 01             	cmp    $0x1,%eax
  402282:	75 15                	jne    402299 <rio_readlineb+0x56>
  402284:	48 8d 45 01          	lea    0x1(%rbp),%rax
  402288:	0f b6 54 24 07       	movzbl 0x7(%rsp),%edx
  40228d:	88 55 00             	mov    %dl,0x0(%rbp)
  402290:	80 7c 24 07 0a       	cmpb   $0xa,0x7(%rsp)
  402295:	75 0e                	jne    4022a5 <rio_readlineb+0x62>
  402297:	eb 1a                	jmp    4022b3 <rio_readlineb+0x70>
  402299:	85 c0                	test   %eax,%eax
  40229b:	75 22                	jne    4022bf <rio_readlineb+0x7c>
  40229d:	48 83 fb 01          	cmp    $0x1,%rbx
  4022a1:	75 13                	jne    4022b6 <rio_readlineb+0x73>
  4022a3:	eb 23                	jmp    4022c8 <rio_readlineb+0x85>
  4022a5:	48 83 c3 01          	add    $0x1,%rbx
  4022a9:	48 89 c5             	mov    %rax,%rbp
  4022ac:	4c 39 e3             	cmp    %r12,%rbx
  4022af:	72 bc                	jb     40226d <rio_readlineb+0x2a>
  4022b1:	eb 03                	jmp    4022b6 <rio_readlineb+0x73>
  4022b3:	48 89 c5             	mov    %rax,%rbp
  4022b6:	c6 45 00 00          	movb   $0x0,0x0(%rbp)
  4022ba:	48 89 d8             	mov    %rbx,%rax
  4022bd:	eb 0e                	jmp    4022cd <rio_readlineb+0x8a>
  4022bf:	48 c7 c0 ff ff ff ff 	mov    $0xffffffffffffffff,%rax
  4022c6:	eb 05                	jmp    4022cd <rio_readlineb+0x8a>
  4022c8:	b8 00 00 00 00       	mov    $0x0,%eax
  4022cd:	48 8b 4c 24 08       	mov    0x8(%rsp),%rcx
  4022d2:	64 48 33 0c 25 28 00 	xor    %fs:0x28,%rcx
  4022d9:	00 00 
  4022db:	74 05                	je     4022e2 <rio_readlineb+0x9f>
  4022dd:	e8 0e ea ff ff       	callq  400cf0 <__stack_chk_fail@plt>
  4022e2:	48 83 c4 18          	add    $0x18,%rsp
  4022e6:	5b                   	pop    %rbx
  4022e7:	5d                   	pop    %rbp
  4022e8:	41 5c                	pop    %r12
  4022ea:	41 5d                	pop    %r13
  4022ec:	c3                   	retq   

00000000004022ed <urlencode>:
  4022ed:	41 54                	push   %r12
  4022ef:	55                   	push   %rbp
  4022f0:	53                   	push   %rbx
  4022f1:	48 83 ec 10          	sub    $0x10,%rsp
  4022f5:	48 89 fb             	mov    %rdi,%rbx
  4022f8:	48 89 f5             	mov    %rsi,%rbp
  4022fb:	64 48 8b 04 25 28 00 	mov    %fs:0x28,%rax
  402302:	00 00 
  402304:	48 89 44 24 08       	mov    %rax,0x8(%rsp)
  402309:	31 c0                	xor    %eax,%eax
  40230b:	48 c7 c1 ff ff ff ff 	mov    $0xffffffffffffffff,%rcx
  402312:	f2 ae                	repnz scas %es:(%rdi),%al
  402314:	48 f7 d1             	not    %rcx
  402317:	8d 41 ff             	lea    -0x1(%rcx),%eax
  40231a:	e9 aa 00 00 00       	jmpq   4023c9 <urlencode+0xdc>
  40231f:	44 0f b6 03          	movzbl (%rbx),%r8d
  402323:	41 80 f8 2a          	cmp    $0x2a,%r8b
  402327:	0f 94 c2             	sete   %dl
  40232a:	41 80 f8 2d          	cmp    $0x2d,%r8b
  40232e:	0f 94 c0             	sete   %al
  402331:	08 c2                	or     %al,%dl
  402333:	75 24                	jne    402359 <urlencode+0x6c>
  402335:	41 80 f8 2e          	cmp    $0x2e,%r8b
  402339:	74 1e                	je     402359 <urlencode+0x6c>
  40233b:	41 80 f8 5f          	cmp    $0x5f,%r8b
  40233f:	74 18                	je     402359 <urlencode+0x6c>
  402341:	41 8d 40 d0          	lea    -0x30(%r8),%eax
  402345:	3c 09                	cmp    $0x9,%al
  402347:	76 10                	jbe    402359 <urlencode+0x6c>
  402349:	41 8d 40 bf          	lea    -0x41(%r8),%eax
  40234d:	3c 19                	cmp    $0x19,%al
  40234f:	76 08                	jbe    402359 <urlencode+0x6c>
  402351:	41 8d 40 9f          	lea    -0x61(%r8),%eax
  402355:	3c 19                	cmp    $0x19,%al
  402357:	77 0a                	ja     402363 <urlencode+0x76>
  402359:	44 88 45 00          	mov    %r8b,0x0(%rbp)
  40235d:	48 8d 6d 01          	lea    0x1(%rbp),%rbp
  402361:	eb 5f                	jmp    4023c2 <urlencode+0xd5>
  402363:	41 80 f8 20          	cmp    $0x20,%r8b
  402367:	75 0a                	jne    402373 <urlencode+0x86>
  402369:	c6 45 00 2b          	movb   $0x2b,0x0(%rbp)
  40236d:	48 8d 6d 01          	lea    0x1(%rbp),%rbp
  402371:	eb 4f                	jmp    4023c2 <urlencode+0xd5>
  402373:	41 8d 40 e0          	lea    -0x20(%r8),%eax
  402377:	3c 5f                	cmp    $0x5f,%al
  402379:	0f 96 c2             	setbe  %dl
  40237c:	41 80 f8 09          	cmp    $0x9,%r8b
  402380:	0f 94 c0             	sete   %al
  402383:	08 c2                	or     %al,%dl
  402385:	74 50                	je     4023d7 <urlencode+0xea>
  402387:	45 0f b6 c0          	movzbl %r8b,%r8d
  40238b:	b9 28 38 40 00       	mov    $0x403828,%ecx
  402390:	ba 08 00 00 00       	mov    $0x8,%edx
  402395:	be 01 00 00 00       	mov    $0x1,%esi
  40239a:	48 89 e7             	mov    %rsp,%rdi
  40239d:	b8 00 00 00 00       	mov    $0x0,%eax
  4023a2:	e8 d9 ea ff ff       	callq  400e80 <__sprintf_chk@plt>
  4023a7:	0f b6 04 24          	movzbl (%rsp),%eax
  4023ab:	88 45 00             	mov    %al,0x0(%rbp)
  4023ae:	0f b6 44 24 01       	movzbl 0x1(%rsp),%eax
  4023b3:	88 45 01             	mov    %al,0x1(%rbp)
  4023b6:	0f b6 44 24 02       	movzbl 0x2(%rsp),%eax
  4023bb:	88 45 02             	mov    %al,0x2(%rbp)
  4023be:	48 8d 6d 03          	lea    0x3(%rbp),%rbp
  4023c2:	48 83 c3 01          	add    $0x1,%rbx
  4023c6:	44 89 e0             	mov    %r12d,%eax
  4023c9:	44 8d 60 ff          	lea    -0x1(%rax),%r12d
  4023cd:	85 c0                	test   %eax,%eax
  4023cf:	0f 85 4a ff ff ff    	jne    40231f <urlencode+0x32>
  4023d5:	eb 05                	jmp    4023dc <urlencode+0xef>
  4023d7:	b8 ff ff ff ff       	mov    $0xffffffff,%eax
  4023dc:	48 8b 74 24 08       	mov    0x8(%rsp),%rsi
  4023e1:	64 48 33 34 25 28 00 	xor    %fs:0x28,%rsi
  4023e8:	00 00 
  4023ea:	74 05                	je     4023f1 <urlencode+0x104>
  4023ec:	e8 ff e8 ff ff       	callq  400cf0 <__stack_chk_fail@plt>
  4023f1:	48 83 c4 10          	add    $0x10,%rsp
  4023f5:	5b                   	pop    %rbx
  4023f6:	5d                   	pop    %rbp
  4023f7:	41 5c                	pop    %r12
  4023f9:	c3                   	retq   

00000000004023fa <submitr>:
  4023fa:	41 57                	push   %r15
  4023fc:	41 56                	push   %r14
  4023fe:	41 55                	push   %r13
  402400:	41 54                	push   %r12
  402402:	55                   	push   %rbp
  402403:	53                   	push   %rbx
  402404:	48 81 ec 58 a0 00 00 	sub    $0xa058,%rsp
  40240b:	49 89 fc             	mov    %rdi,%r12
  40240e:	89 74 24 04          	mov    %esi,0x4(%rsp)
  402412:	49 89 d7             	mov    %rdx,%r15
  402415:	49 89 ce             	mov    %rcx,%r14
  402418:	4c 89 44 24 08       	mov    %r8,0x8(%rsp)
  40241d:	4d 89 cd             	mov    %r9,%r13
  402420:	48 8b 9c 24 90 a0 00 	mov    0xa090(%rsp),%rbx
  402427:	00 
  402428:	64 48 8b 04 25 28 00 	mov    %fs:0x28,%rax
  40242f:	00 00 
  402431:	48 89 84 24 48 a0 00 	mov    %rax,0xa048(%rsp)
  402438:	00 
  402439:	31 c0                	xor    %eax,%eax
  40243b:	c7 44 24 1c 00 00 00 	movl   $0x0,0x1c(%rsp)
  402442:	00 
  402443:	ba 00 00 00 00       	mov    $0x0,%edx
  402448:	be 01 00 00 00       	mov    $0x1,%esi
  40244d:	bf 02 00 00 00       	mov    $0x2,%edi
  402452:	e8 39 ea ff ff       	callq  400e90 <socket@plt>
  402457:	85 c0                	test   %eax,%eax
  402459:	79 4e                	jns    4024a9 <submitr+0xaf>
  40245b:	48 b8 45 72 72 6f 72 	movabs $0x43203a726f727245,%rax
  402462:	3a 20 43 
  402465:	48 89 03             	mov    %rax,(%rbx)
  402468:	48 b8 6c 69 65 6e 74 	movabs $0x6e7520746e65696c,%rax
  40246f:	20 75 6e 
  402472:	48 89 43 08          	mov    %rax,0x8(%rbx)
  402476:	48 b8 61 62 6c 65 20 	movabs $0x206f7420656c6261,%rax
  40247d:	74 6f 20 
  402480:	48 89 43 10          	mov    %rax,0x10(%rbx)
  402484:	48 b8 63 72 65 61 74 	movabs $0x7320657461657263,%rax
  40248b:	65 20 73 
  40248e:	48 89 43 18          	mov    %rax,0x18(%rbx)
  402492:	c7 43 20 6f 63 6b 65 	movl   $0x656b636f,0x20(%rbx)
  402499:	66 c7 43 24 74 00    	movw   $0x74,0x24(%rbx)
  40249f:	b8 ff ff ff ff       	mov    $0xffffffff,%eax
  4024a4:	e9 97 06 00 00       	jmpq   402b40 <submitr+0x746>
  4024a9:	89 c5                	mov    %eax,%ebp
  4024ab:	4c 89 e7             	mov    %r12,%rdi
  4024ae:	e8 bd e8 ff ff       	callq  400d70 <gethostbyname@plt>
  4024b3:	48 85 c0             	test   %rax,%rax
  4024b6:	75 67                	jne    40251f <submitr+0x125>
  4024b8:	48 b8 45 72 72 6f 72 	movabs $0x44203a726f727245,%rax
  4024bf:	3a 20 44 
  4024c2:	48 89 03             	mov    %rax,(%rbx)
  4024c5:	48 b8 4e 53 20 69 73 	movabs $0x6e7520736920534e,%rax
  4024cc:	20 75 6e 
  4024cf:	48 89 43 08          	mov    %rax,0x8(%rbx)
  4024d3:	48 b8 61 62 6c 65 20 	movabs $0x206f7420656c6261,%rax
  4024da:	74 6f 20 
  4024dd:	48 89 43 10          	mov    %rax,0x10(%rbx)
  4024e1:	48 b8 72 65 73 6f 6c 	movabs $0x2065766c6f736572,%rax
  4024e8:	76 65 20 
  4024eb:	48 89 43 18          	mov    %rax,0x18(%rbx)
  4024ef:	48 b8 73 65 72 76 65 	movabs $0x6120726576726573,%rax
  4024f6:	72 20 61 
  4024f9:	48 89 43 20          	mov    %rax,0x20(%rbx)
  4024fd:	c7 43 28 64 64 72 65 	movl   $0x65726464,0x28(%rbx)
  402504:	66 c7 43 2c 73 73    	movw   $0x7373,0x2c(%rbx)
  40250a:	c6 43 2e 00          	movb   $0x0,0x2e(%rbx)
  40250e:	89 ef                	mov    %ebp,%edi
  402510:	e8 1b e8 ff ff       	callq  400d30 <close@plt>
  402515:	b8 ff ff ff ff       	mov    $0xffffffff,%eax
  40251a:	e9 21 06 00 00       	jmpq   402b40 <submitr+0x746>
  40251f:	48 c7 44 24 20 00 00 	movq   $0x0,0x20(%rsp)
  402526:	00 00 
  402528:	48 c7 44 24 28 00 00 	movq   $0x0,0x28(%rsp)
  40252f:	00 00 
  402531:	66 c7 44 24 20 02 00 	movw   $0x2,0x20(%rsp)
  402538:	48 63 50 14          	movslq 0x14(%rax),%rdx
  40253c:	48 8b 40 18          	mov    0x18(%rax),%rax
  402540:	48 8b 30             	mov    (%rax),%rsi
  402543:	48 8d 7c 24 24       	lea    0x24(%rsp),%rdi
  402548:	b9 0c 00 00 00       	mov    $0xc,%ecx
  40254d:	e8 2e e8 ff ff       	callq  400d80 <__memmove_chk@plt>
  402552:	0f b7 44 24 04       	movzwl 0x4(%rsp),%eax
  402557:	66 c1 c8 08          	ror    $0x8,%ax
  40255b:	66 89 44 24 22       	mov    %ax,0x22(%rsp)
  402560:	ba 10 00 00 00       	mov    $0x10,%edx
  402565:	48 8d 74 24 20       	lea    0x20(%rsp),%rsi
  40256a:	89 ef                	mov    %ebp,%edi
  40256c:	e8 ef e8 ff ff       	callq  400e60 <connect@plt>
  402571:	85 c0                	test   %eax,%eax
  402573:	79 59                	jns    4025ce <submitr+0x1d4>
  402575:	48 b8 45 72 72 6f 72 	movabs $0x55203a726f727245,%rax
  40257c:	3a 20 55 
  40257f:	48 89 03             	mov    %rax,(%rbx)
  402582:	48 b8 6e 61 62 6c 65 	movabs $0x6f7420656c62616e,%rax
  402589:	20 74 6f 
  40258c:	48 89 43 08          	mov    %rax,0x8(%rbx)
  402590:	48 b8 20 63 6f 6e 6e 	movabs $0x7463656e6e6f6320,%rax
  402597:	65 63 74 
  40259a:	48 89 43 10          	mov    %rax,0x10(%rbx)
  40259e:	48 b8 20 74 6f 20 74 	movabs $0x20656874206f7420,%rax
  4025a5:	68 65 20 
  4025a8:	48 89 43 18          	mov    %rax,0x18(%rbx)
  4025ac:	c7 43 20 73 65 72 76 	movl   $0x76726573,0x20(%rbx)
  4025b3:	66 c7 43 24 65 72    	movw   $0x7265,0x24(%rbx)
  4025b9:	c6 43 26 00          	movb   $0x0,0x26(%rbx)
  4025bd:	89 ef                	mov    %ebp,%edi
  4025bf:	e8 6c e7 ff ff       	callq  400d30 <close@plt>
  4025c4:	b8 ff ff ff ff       	mov    $0xffffffff,%eax
  4025c9:	e9 72 05 00 00       	jmpq   402b40 <submitr+0x746>
  4025ce:	48 c7 c6 ff ff ff ff 	mov    $0xffffffffffffffff,%rsi
  4025d5:	b8 00 00 00 00       	mov    $0x0,%eax
  4025da:	48 89 f1             	mov    %rsi,%rcx
  4025dd:	4c 89 ef             	mov    %r13,%rdi
  4025e0:	f2 ae                	repnz scas %es:(%rdi),%al
  4025e2:	48 f7 d1             	not    %rcx
  4025e5:	48 89 ca             	mov    %rcx,%rdx
  4025e8:	48 89 f1             	mov    %rsi,%rcx
  4025eb:	4c 89 ff             	mov    %r15,%rdi
  4025ee:	f2 ae                	repnz scas %es:(%rdi),%al
  4025f0:	48 f7 d1             	not    %rcx
  4025f3:	49 89 c8             	mov    %rcx,%r8
  4025f6:	48 89 f1             	mov    %rsi,%rcx
  4025f9:	4c 89 f7             	mov    %r14,%rdi
  4025fc:	f2 ae                	repnz scas %es:(%rdi),%al
  4025fe:	48 f7 d1             	not    %rcx
  402601:	4d 8d 44 08 fe       	lea    -0x2(%r8,%rcx,1),%r8
  402606:	48 89 f1             	mov    %rsi,%rcx
  402609:	48 8b 7c 24 08       	mov    0x8(%rsp),%rdi
  40260e:	f2 ae                	repnz scas %es:(%rdi),%al
  402610:	48 89 c8             	mov    %rcx,%rax
  402613:	48 f7 d0             	not    %rax
  402616:	49 8d 4c 00 ff       	lea    -0x1(%r8,%rax,1),%rcx
  40261b:	48 8d 44 52 fd       	lea    -0x3(%rdx,%rdx,2),%rax
  402620:	48 8d 84 01 80 00 00 	lea    0x80(%rcx,%rax,1),%rax
  402627:	00 
  402628:	48 3d 00 20 00 00    	cmp    $0x2000,%rax
  40262e:	76 72                	jbe    4026a2 <submitr+0x2a8>
  402630:	48 b8 45 72 72 6f 72 	movabs $0x52203a726f727245,%rax
  402637:	3a 20 52 
  40263a:	48 89 03             	mov    %rax,(%rbx)
  40263d:	48 b8 65 73 75 6c 74 	movabs $0x747320746c757365,%rax
  402644:	20 73 74 
  402647:	48 89 43 08          	mov    %rax,0x8(%rbx)
  40264b:	48 b8 72 69 6e 67 20 	movabs $0x6f6f7420676e6972,%rax
  402652:	74 6f 6f 
  402655:	48 89 43 10          	mov    %rax,0x10(%rbx)
  402659:	48 b8 20 6c 61 72 67 	movabs $0x202e656772616c20,%rax
  402660:	65 2e 20 
  402663:	48 89 43 18          	mov    %rax,0x18(%rbx)
  402667:	48 b8 49 6e 63 72 65 	movabs $0x6573616572636e49,%rax
  40266e:	61 73 65 
  402671:	48 89 43 20          	mov    %rax,0x20(%rbx)
  402675:	48 b8 20 53 55 42 4d 	movabs $0x5254494d42555320,%rax
  40267c:	49 54 52 
  40267f:	48 89 43 28          	mov    %rax,0x28(%rbx)
  402683:	48 b8 5f 4d 41 58 42 	movabs $0x46554258414d5f,%rax
  40268a:	55 46 00 
  40268d:	48 89 43 30          	mov    %rax,0x30(%rbx)
  402691:	89 ef                	mov    %ebp,%edi
  402693:	e8 98 e6 ff ff       	callq  400d30 <close@plt>
  402698:	b8 ff ff ff ff       	mov    $0xffffffff,%eax
  40269d:	e9 9e 04 00 00       	jmpq   402b40 <submitr+0x746>
  4026a2:	48 8d b4 24 40 40 00 	lea    0x4040(%rsp),%rsi
  4026a9:	00 
  4026aa:	b9 00 04 00 00       	mov    $0x400,%ecx
  4026af:	b8 00 00 00 00       	mov    $0x0,%eax
  4026b4:	48 89 f7             	mov    %rsi,%rdi
  4026b7:	f3 48 ab             	rep stos %rax,%es:(%rdi)
  4026ba:	4c 89 ef             	mov    %r13,%rdi
  4026bd:	e8 2b fc ff ff       	callq  4022ed <urlencode>
  4026c2:	85 c0                	test   %eax,%eax
  4026c4:	0f 89 8a 00 00 00    	jns    402754 <submitr+0x35a>
  4026ca:	48 b8 45 72 72 6f 72 	movabs $0x52203a726f727245,%rax
  4026d1:	3a 20 52 
  4026d4:	48 89 03             	mov    %rax,(%rbx)
  4026d7:	48 b8 65 73 75 6c 74 	movabs $0x747320746c757365,%rax
  4026de:	20 73 74 
  4026e1:	48 89 43 08          	mov    %rax,0x8(%rbx)
  4026e5:	48 b8 72 69 6e 67 20 	movabs $0x6e6f6320676e6972,%rax
  4026ec:	63 6f 6e 
  4026ef:	48 89 43 10          	mov    %rax,0x10(%rbx)
  4026f3:	48 b8 74 61 69 6e 73 	movabs $0x6e6120736e696174,%rax
  4026fa:	20 61 6e 
  4026fd:	48 89 43 18          	mov    %rax,0x18(%rbx)
  402701:	48 b8 20 69 6c 6c 65 	movabs $0x6c6167656c6c6920,%rax
  402708:	67 61 6c 
  40270b:	48 89 43 20          	mov    %rax,0x20(%rbx)
  40270f:	48 b8 20 6f 72 20 75 	movabs $0x72706e7520726f20,%rax
  402716:	6e 70 72 
  402719:	48 89 43 28          	mov    %rax,0x28(%rbx)
  40271d:	48 b8 69 6e 74 61 62 	movabs $0x20656c6261746e69,%rax
  402724:	6c 65 20 
  402727:	48 89 43 30          	mov    %rax,0x30(%rbx)
  40272b:	48 b8 63 68 61 72 61 	movabs $0x6574636172616863,%rax
  402732:	63 74 65 
  402735:	48 89 43 38          	mov    %rax,0x38(%rbx)
  402739:	66 c7 43 40 72 2e    	movw   $0x2e72,0x40(%rbx)
  40273f:	c6 43 42 00          	movb   $0x0,0x42(%rbx)
  402743:	89 ef                	mov    %ebp,%edi
  402745:	e8 e6 e5 ff ff       	callq  400d30 <close@plt>
  40274a:	b8 ff ff ff ff       	mov    $0xffffffff,%eax
  40274f:	e9 ec 03 00 00       	jmpq   402b40 <submitr+0x746>
  402754:	4c 8d ac 24 40 20 00 	lea    0x2040(%rsp),%r13
  40275b:	00 
  40275c:	41 54                	push   %r12
  40275e:	48 8d 84 24 48 40 00 	lea    0x4048(%rsp),%rax
  402765:	00 
  402766:	50                   	push   %rax
  402767:	4d 89 f9             	mov    %r15,%r9
  40276a:	4d 89 f0             	mov    %r14,%r8
  40276d:	b9 b8 37 40 00       	mov    $0x4037b8,%ecx
  402772:	ba 00 20 00 00       	mov    $0x2000,%edx
  402777:	be 01 00 00 00       	mov    $0x1,%esi
  40277c:	4c 89 ef             	mov    %r13,%rdi
  40277f:	b8 00 00 00 00       	mov    $0x0,%eax
  402784:	e8 f7 e6 ff ff       	callq  400e80 <__sprintf_chk@plt>
  402789:	b8 00 00 00 00       	mov    $0x0,%eax
  40278e:	48 c7 c1 ff ff ff ff 	mov    $0xffffffffffffffff,%rcx
  402795:	4c 89 ef             	mov    %r13,%rdi
  402798:	f2 ae                	repnz scas %es:(%rdi),%al
  40279a:	48 f7 d1             	not    %rcx
  40279d:	48 8d 51 ff          	lea    -0x1(%rcx),%rdx
  4027a1:	4c 89 ee             	mov    %r13,%rsi
  4027a4:	89 ef                	mov    %ebp,%edi
  4027a6:	e8 b1 f9 ff ff       	callq  40215c <rio_writen>
  4027ab:	48 83 c4 10          	add    $0x10,%rsp
  4027af:	48 85 c0             	test   %rax,%rax
  4027b2:	79 6e                	jns    402822 <submitr+0x428>
  4027b4:	48 b8 45 72 72 6f 72 	movabs $0x43203a726f727245,%rax
  4027bb:	3a 20 43 
  4027be:	48 89 03             	mov    %rax,(%rbx)
  4027c1:	48 b8 6c 69 65 6e 74 	movabs $0x6e7520746e65696c,%rax
  4027c8:	20 75 6e 
  4027cb:	48 89 43 08          	mov    %rax,0x8(%rbx)
  4027cf:	48 b8 61 62 6c 65 20 	movabs $0x206f7420656c6261,%rax
  4027d6:	74 6f 20 
  4027d9:	48 89 43 10          	mov    %rax,0x10(%rbx)
  4027dd:	48 b8 77 72 69 74 65 	movabs $0x6f74206574697277,%rax
  4027e4:	20 74 6f 
  4027e7:	48 89 43 18          	mov    %rax,0x18(%rbx)
  4027eb:	48 b8 20 74 68 65 20 	movabs $0x7365722065687420,%rax
  4027f2:	72 65 73 
  4027f5:	48 89 43 20          	mov    %rax,0x20(%rbx)
  4027f9:	48 b8 75 6c 74 20 73 	movabs $0x7672657320746c75,%rax
  402800:	65 72 76 
  402803:	48 89 43 28          	mov    %rax,0x28(%rbx)
  402807:	66 c7 43 30 65 72    	movw   $0x7265,0x30(%rbx)
  40280d:	c6 43 32 00          	movb   $0x0,0x32(%rbx)
  402811:	89 ef                	mov    %ebp,%edi
  402813:	e8 18 e5 ff ff       	callq  400d30 <close@plt>
  402818:	b8 ff ff ff ff       	mov    $0xffffffff,%eax
  40281d:	e9 1e 03 00 00       	jmpq   402b40 <submitr+0x746>
  402822:	89 ee                	mov    %ebp,%esi
  402824:	48 8d 7c 24 30       	lea    0x30(%rsp),%rdi
  402829:	e8 ee f8 ff ff       	callq  40211c <rio_readinitb>
  40282e:	ba 00 20 00 00       	mov    $0x2000,%edx
  402833:	48 8d b4 24 40 20 00 	lea    0x2040(%rsp),%rsi
  40283a:	00 
  40283b:	48 8d 7c 24 30       	lea    0x30(%rsp),%rdi
  402840:	e8 fe f9 ff ff       	callq  402243 <rio_readlineb>
  402845:	48 85 c0             	test   %rax,%rax
  402848:	7f 7d                	jg     4028c7 <submitr+0x4cd>
  40284a:	48 b8 45 72 72 6f 72 	movabs $0x43203a726f727245,%rax
  402851:	3a 20 43 
  402854:	48 89 03             	mov    %rax,(%rbx)
  402857:	48 b8 6c 69 65 6e 74 	movabs $0x6e7520746e65696c,%rax
  40285e:	20 75 6e 
  402861:	48 89 43 08          	mov    %rax,0x8(%rbx)
  402865:	48 b8 61 62 6c 65 20 	movabs $0x206f7420656c6261,%rax
  40286c:	74 6f 20 
  40286f:	48 89 43 10          	mov    %rax,0x10(%rbx)
  402873:	48 b8 72 65 61 64 20 	movabs $0x7269662064616572,%rax
  40287a:	66 69 72 
  40287d:	48 89 43 18          	mov    %rax,0x18(%rbx)
  402881:	48 b8 73 74 20 68 65 	movabs $0x6564616568207473,%rax
  402888:	61 64 65 
  40288b:	48 89 43 20          	mov    %rax,0x20(%rbx)
  40288f:	48 b8 72 20 66 72 6f 	movabs $0x72206d6f72662072,%rax
  402896:	6d 20 72 
  402899:	48 89 43 28          	mov    %rax,0x28(%rbx)
  40289d:	48 b8 65 73 75 6c 74 	movabs $0x657320746c757365,%rax
  4028a4:	20 73 65 
  4028a7:	48 89 43 30          	mov    %rax,0x30(%rbx)
  4028ab:	c7 43 38 72 76 65 72 	movl   $0x72657672,0x38(%rbx)
  4028b2:	c6 43 3c 00          	movb   $0x0,0x3c(%rbx)
  4028b6:	89 ef                	mov    %ebp,%edi
  4028b8:	e8 73 e4 ff ff       	callq  400d30 <close@plt>
  4028bd:	b8 ff ff ff ff       	mov    $0xffffffff,%eax
  4028c2:	e9 79 02 00 00       	jmpq   402b40 <submitr+0x746>
  4028c7:	4c 8d 84 24 40 80 00 	lea    0x8040(%rsp),%r8
  4028ce:	00 
  4028cf:	48 8d 4c 24 1c       	lea    0x1c(%rsp),%rcx
  4028d4:	48 8d 94 24 40 60 00 	lea    0x6040(%rsp),%rdx
  4028db:	00 
  4028dc:	be 2f 38 40 00       	mov    $0x40382f,%esi
  4028e1:	48 8d bc 24 40 20 00 	lea    0x2040(%rsp),%rdi
  4028e8:	00 
  4028e9:	b8 00 00 00 00       	mov    $0x0,%eax
  4028ee:	e8 ed e4 ff ff       	callq  400de0 <__isoc99_sscanf@plt>
  4028f3:	e9 95 00 00 00       	jmpq   40298d <submitr+0x593>
  4028f8:	ba 00 20 00 00       	mov    $0x2000,%edx
  4028fd:	48 8d b4 24 40 20 00 	lea    0x2040(%rsp),%rsi
  402904:	00 
  402905:	48 8d 7c 24 30       	lea    0x30(%rsp),%rdi
  40290a:	e8 34 f9 ff ff       	callq  402243 <rio_readlineb>
  40290f:	48 85 c0             	test   %rax,%rax
  402912:	7f 79                	jg     40298d <submitr+0x593>
  402914:	48 b8 45 72 72 6f 72 	movabs $0x43203a726f727245,%rax
  40291b:	3a 20 43 
  40291e:	48 89 03             	mov    %rax,(%rbx)
  402921:	48 b8 6c 69 65 6e 74 	movabs $0x6e7520746e65696c,%rax
  402928:	20 75 6e 
  40292b:	48 89 43 08          	mov    %rax,0x8(%rbx)
  40292f:	48 b8 61 62 6c 65 20 	movabs $0x206f7420656c6261,%rax
  402936:	74 6f 20 
  402939:	48 89 43 10          	mov    %rax,0x10(%rbx)
  40293d:	48 b8 72 65 61 64 20 	movabs $0x6165682064616572,%rax
  402944:	68 65 61 
  402947:	48 89 43 18          	mov    %rax,0x18(%rbx)
  40294b:	48 b8 64 65 72 73 20 	movabs $0x6f72662073726564,%rax
  402952:	66 72 6f 
  402955:	48 89 43 20          	mov    %rax,0x20(%rbx)
  402959:	48 b8 6d 20 74 68 65 	movabs $0x657220656874206d,%rax
  402960:	20 72 65 
  402963:	48 89 43 28          	mov    %rax,0x28(%rbx)
  402967:	48 b8 73 75 6c 74 20 	movabs $0x72657320746c7573,%rax
  40296e:	73 65 72 
  402971:	48 89 43 30          	mov    %rax,0x30(%rbx)
  402975:	c7 43 38 76 65 72 00 	movl   $0x726576,0x38(%rbx)
  40297c:	89 ef                	mov    %ebp,%edi
  40297e:	e8 ad e3 ff ff       	callq  400d30 <close@plt>
  402983:	b8 ff ff ff ff       	mov    $0xffffffff,%eax
  402988:	e9 b3 01 00 00       	jmpq   402b40 <submitr+0x746>
  40298d:	0f b6 94 24 40 20 00 	movzbl 0x2040(%rsp),%edx
  402994:	00 
  402995:	b8 0d 00 00 00       	mov    $0xd,%eax
  40299a:	29 d0                	sub    %edx,%eax
  40299c:	75 1b                	jne    4029b9 <submitr+0x5bf>
  40299e:	0f b6 94 24 41 20 00 	movzbl 0x2041(%rsp),%edx
  4029a5:	00 
  4029a6:	b8 0a 00 00 00       	mov    $0xa,%eax
  4029ab:	29 d0                	sub    %edx,%eax
  4029ad:	75 0a                	jne    4029b9 <submitr+0x5bf>
  4029af:	0f b6 84 24 42 20 00 	movzbl 0x2042(%rsp),%eax
  4029b6:	00 
  4029b7:	f7 d8                	neg    %eax
  4029b9:	85 c0                	test   %eax,%eax
  4029bb:	0f 85 37 ff ff ff    	jne    4028f8 <submitr+0x4fe>
  4029c1:	ba 00 20 00 00       	mov    $0x2000,%edx
  4029c6:	48 8d b4 24 40 20 00 	lea    0x2040(%rsp),%rsi
  4029cd:	00 
  4029ce:	48 8d 7c 24 30       	lea    0x30(%rsp),%rdi
  4029d3:	e8 6b f8 ff ff       	callq  402243 <rio_readlineb>
  4029d8:	48 85 c0             	test   %rax,%rax
  4029db:	0f 8f 83 00 00 00    	jg     402a64 <submitr+0x66a>
  4029e1:	48 b8 45 72 72 6f 72 	movabs $0x43203a726f727245,%rax
  4029e8:	3a 20 43 
  4029eb:	48 89 03             	mov    %rax,(%rbx)
  4029ee:	48 b8 6c 69 65 6e 74 	movabs $0x6e7520746e65696c,%rax
  4029f5:	20 75 6e 
  4029f8:	48 89 43 08          	mov    %rax,0x8(%rbx)
  4029fc:	48 b8 61 62 6c 65 20 	movabs $0x206f7420656c6261,%rax
  402a03:	74 6f 20 
  402a06:	48 89 43 10          	mov    %rax,0x10(%rbx)
  402a0a:	48 b8 72 65 61 64 20 	movabs $0x6174732064616572,%rax
  402a11:	73 74 61 
  402a14:	48 89 43 18          	mov    %rax,0x18(%rbx)
  402a18:	48 b8 74 75 73 20 6d 	movabs $0x7373656d20737574,%rax
  402a1f:	65 73 73 
  402a22:	48 89 43 20          	mov    %rax,0x20(%rbx)
  402a26:	48 b8 61 67 65 20 66 	movabs $0x6d6f726620656761,%rax
  402a2d:	72 6f 6d 
  402a30:	48 89 43 28          	mov    %rax,0x28(%rbx)
  402a34:	48 b8 20 72 65 73 75 	movabs $0x20746c7573657220,%rax
  402a3b:	6c 74 20 
  402a3e:	48 89 43 30          	mov    %rax,0x30(%rbx)
  402a42:	c7 43 38 73 65 72 76 	movl   $0x76726573,0x38(%rbx)
  402a49:	66 c7 43 3c 65 72    	movw   $0x7265,0x3c(%rbx)
  402a4f:	c6 43 3e 00          	movb   $0x0,0x3e(%rbx)
  402a53:	89 ef                	mov    %ebp,%edi
  402a55:	e8 d6 e2 ff ff       	callq  400d30 <close@plt>
  402a5a:	b8 ff ff ff ff       	mov    $0xffffffff,%eax
  402a5f:	e9 dc 00 00 00       	jmpq   402b40 <submitr+0x746>
  402a64:	44 8b 44 24 1c       	mov    0x1c(%rsp),%r8d
  402a69:	41 81 f8 c8 00 00 00 	cmp    $0xc8,%r8d
  402a70:	74 37                	je     402aa9 <submitr+0x6af>
  402a72:	4c 8d 8c 24 40 80 00 	lea    0x8040(%rsp),%r9
  402a79:	00 
  402a7a:	b9 f8 37 40 00       	mov    $0x4037f8,%ecx
  402a7f:	48 c7 c2 ff ff ff ff 	mov    $0xffffffffffffffff,%rdx
  402a86:	be 01 00 00 00       	mov    $0x1,%esi
  402a8b:	48 89 df             	mov    %rbx,%rdi
  402a8e:	b8 00 00 00 00       	mov    $0x0,%eax
  402a93:	e8 e8 e3 ff ff       	callq  400e80 <__sprintf_chk@plt>
  402a98:	89 ef                	mov    %ebp,%edi
  402a9a:	e8 91 e2 ff ff       	callq  400d30 <close@plt>
  402a9f:	b8 ff ff ff ff       	mov    $0xffffffff,%eax
  402aa4:	e9 97 00 00 00       	jmpq   402b40 <submitr+0x746>
  402aa9:	48 8d b4 24 40 20 00 	lea    0x2040(%rsp),%rsi
  402ab0:	00 
  402ab1:	48 89 df             	mov    %rbx,%rdi
  402ab4:	e8 07 e2 ff ff       	callq  400cc0 <strcpy@plt>
  402ab9:	89 ef                	mov    %ebp,%edi
  402abb:	e8 70 e2 ff ff       	callq  400d30 <close@plt>
  402ac0:	0f b6 03             	movzbl (%rbx),%eax
  402ac3:	ba 4f 00 00 00       	mov    $0x4f,%edx
  402ac8:	29 c2                	sub    %eax,%edx
  402aca:	75 22                	jne    402aee <submitr+0x6f4>
  402acc:	0f b6 4b 01          	movzbl 0x1(%rbx),%ecx
  402ad0:	b8 4b 00 00 00       	mov    $0x4b,%eax
  402ad5:	29 c8                	sub    %ecx,%eax
  402ad7:	75 17                	jne    402af0 <submitr+0x6f6>
  402ad9:	0f b6 4b 02          	movzbl 0x2(%rbx),%ecx
  402add:	b8 0a 00 00 00       	mov    $0xa,%eax
  402ae2:	29 c8                	sub    %ecx,%eax
  402ae4:	75 0a                	jne    402af0 <submitr+0x6f6>
  402ae6:	0f b6 43 03          	movzbl 0x3(%rbx),%eax
  402aea:	f7 d8                	neg    %eax
  402aec:	eb 02                	jmp    402af0 <submitr+0x6f6>
  402aee:	89 d0                	mov    %edx,%eax
  402af0:	85 c0                	test   %eax,%eax
  402af2:	74 40                	je     402b34 <submitr+0x73a>
  402af4:	bf 40 38 40 00       	mov    $0x403840,%edi
  402af9:	b9 05 00 00 00       	mov    $0x5,%ecx
  402afe:	48 89 de             	mov    %rbx,%rsi
  402b01:	f3 a6                	repz cmpsb %es:(%rdi),%ds:(%rsi)
  402b03:	0f 97 c0             	seta   %al
  402b06:	0f 92 c1             	setb   %cl
  402b09:	29 c8                	sub    %ecx,%eax
  402b0b:	0f be c0             	movsbl %al,%eax
  402b0e:	85 c0                	test   %eax,%eax
  402b10:	74 2e                	je     402b40 <submitr+0x746>
  402b12:	85 d2                	test   %edx,%edx
  402b14:	75 13                	jne    402b29 <submitr+0x72f>
  402b16:	0f b6 43 01          	movzbl 0x1(%rbx),%eax
  402b1a:	ba 4b 00 00 00       	mov    $0x4b,%edx
  402b1f:	29 c2                	sub    %eax,%edx
  402b21:	75 06                	jne    402b29 <submitr+0x72f>
  402b23:	0f b6 53 02          	movzbl 0x2(%rbx),%edx
  402b27:	f7 da                	neg    %edx
  402b29:	85 d2                	test   %edx,%edx
  402b2b:	75 0e                	jne    402b3b <submitr+0x741>
  402b2d:	b8 00 00 00 00       	mov    $0x0,%eax
  402b32:	eb 0c                	jmp    402b40 <submitr+0x746>
  402b34:	b8 00 00 00 00       	mov    $0x0,%eax
  402b39:	eb 05                	jmp    402b40 <submitr+0x746>
  402b3b:	b8 ff ff ff ff       	mov    $0xffffffff,%eax
  402b40:	48 8b 9c 24 48 a0 00 	mov    0xa048(%rsp),%rbx
  402b47:	00 
  402b48:	64 48 33 1c 25 28 00 	xor    %fs:0x28,%rbx
  402b4f:	00 00 
  402b51:	74 05                	je     402b58 <submitr+0x75e>
  402b53:	e8 98 e1 ff ff       	callq  400cf0 <__stack_chk_fail@plt>
  402b58:	48 81 c4 58 a0 00 00 	add    $0xa058,%rsp
  402b5f:	5b                   	pop    %rbx
  402b60:	5d                   	pop    %rbp
  402b61:	41 5c                	pop    %r12
  402b63:	41 5d                	pop    %r13
  402b65:	41 5e                	pop    %r14
  402b67:	41 5f                	pop    %r15
  402b69:	c3                   	retq   

0000000000402b6a <init_timeout>:
  402b6a:	85 ff                	test   %edi,%edi
  402b6c:	74 23                	je     402b91 <init_timeout+0x27>
  402b6e:	53                   	push   %rbx
  402b6f:	89 fb                	mov    %edi,%ebx
  402b71:	85 ff                	test   %edi,%edi
  402b73:	79 05                	jns    402b7a <init_timeout+0x10>
  402b75:	bb 00 00 00 00       	mov    $0x0,%ebx
  402b7a:	be 2e 21 40 00       	mov    $0x40212e,%esi
  402b7f:	bf 0e 00 00 00       	mov    $0xe,%edi
  402b84:	e8 d7 e1 ff ff       	callq  400d60 <signal@plt>
  402b89:	89 df                	mov    %ebx,%edi
  402b8b:	e8 90 e1 ff ff       	callq  400d20 <alarm@plt>
  402b90:	5b                   	pop    %rbx
  402b91:	f3 c3                	repz retq 

0000000000402b93 <init_driver>:
  402b93:	55                   	push   %rbp
  402b94:	53                   	push   %rbx
  402b95:	48 83 ec 28          	sub    $0x28,%rsp
  402b99:	48 89 fd             	mov    %rdi,%rbp
  402b9c:	64 48 8b 04 25 28 00 	mov    %fs:0x28,%rax
  402ba3:	00 00 
  402ba5:	48 89 44 24 18       	mov    %rax,0x18(%rsp)
  402baa:	31 c0                	xor    %eax,%eax
  402bac:	be 01 00 00 00       	mov    $0x1,%esi
  402bb1:	bf 0d 00 00 00       	mov    $0xd,%edi
  402bb6:	e8 a5 e1 ff ff       	callq  400d60 <signal@plt>
  402bbb:	be 01 00 00 00       	mov    $0x1,%esi
  402bc0:	bf 1d 00 00 00       	mov    $0x1d,%edi
  402bc5:	e8 96 e1 ff ff       	callq  400d60 <signal@plt>
  402bca:	be 01 00 00 00       	mov    $0x1,%esi
  402bcf:	bf 1d 00 00 00       	mov    $0x1d,%edi
  402bd4:	e8 87 e1 ff ff       	callq  400d60 <signal@plt>
  402bd9:	ba 00 00 00 00       	mov    $0x0,%edx
  402bde:	be 01 00 00 00       	mov    $0x1,%esi
  402be3:	bf 02 00 00 00       	mov    $0x2,%edi
  402be8:	e8 a3 e2 ff ff       	callq  400e90 <socket@plt>
  402bed:	85 c0                	test   %eax,%eax
  402bef:	79 4f                	jns    402c40 <init_driver+0xad>
  402bf1:	48 b8 45 72 72 6f 72 	movabs $0x43203a726f727245,%rax
  402bf8:	3a 20 43 
  402bfb:	48 89 45 00          	mov    %rax,0x0(%rbp)
  402bff:	48 b8 6c 69 65 6e 74 	movabs $0x6e7520746e65696c,%rax
  402c06:	20 75 6e 
  402c09:	48 89 45 08          	mov    %rax,0x8(%rbp)
  402c0d:	48 b8 61 62 6c 65 20 	movabs $0x206f7420656c6261,%rax
  402c14:	74 6f 20 
  402c17:	48 89 45 10          	mov    %rax,0x10(%rbp)
  402c1b:	48 b8 63 72 65 61 74 	movabs $0x7320657461657263,%rax
  402c22:	65 20 73 
  402c25:	48 89 45 18          	mov    %rax,0x18(%rbp)
  402c29:	c7 45 20 6f 63 6b 65 	movl   $0x656b636f,0x20(%rbp)
  402c30:	66 c7 45 24 74 00    	movw   $0x74,0x24(%rbp)
  402c36:	b8 ff ff ff ff       	mov    $0xffffffff,%eax
  402c3b:	e9 2a 01 00 00       	jmpq   402d6a <init_driver+0x1d7>
  402c40:	89 c3                	mov    %eax,%ebx
  402c42:	bf 45 38 40 00       	mov    $0x403845,%edi
  402c47:	e8 24 e1 ff ff       	callq  400d70 <gethostbyname@plt>
  402c4c:	48 85 c0             	test   %rax,%rax
  402c4f:	75 68                	jne    402cb9 <init_driver+0x126>
  402c51:	48 b8 45 72 72 6f 72 	movabs $0x44203a726f727245,%rax
  402c58:	3a 20 44 
  402c5b:	48 89 45 00          	mov    %rax,0x0(%rbp)
  402c5f:	48 b8 4e 53 20 69 73 	movabs $0x6e7520736920534e,%rax
  402c66:	20 75 6e 
  402c69:	48 89 45 08          	mov    %rax,0x8(%rbp)
  402c6d:	48 b8 61 62 6c 65 20 	movabs $0x206f7420656c6261,%rax
  402c74:	74 6f 20 
  402c77:	48 89 45 10          	mov    %rax,0x10(%rbp)
  402c7b:	48 b8 72 65 73 6f 6c 	movabs $0x2065766c6f736572,%rax
  402c82:	76 65 20 
  402c85:	48 89 45 18          	mov    %rax,0x18(%rbp)
  402c89:	48 b8 73 65 72 76 65 	movabs $0x6120726576726573,%rax
  402c90:	72 20 61 
  402c93:	48 89 45 20          	mov    %rax,0x20(%rbp)
  402c97:	c7 45 28 64 64 72 65 	movl   $0x65726464,0x28(%rbp)
  402c9e:	66 c7 45 2c 73 73    	movw   $0x7373,0x2c(%rbp)
  402ca4:	c6 45 2e 00          	movb   $0x0,0x2e(%rbp)
  402ca8:	89 df                	mov    %ebx,%edi
  402caa:	e8 81 e0 ff ff       	callq  400d30 <close@plt>
  402caf:	b8 ff ff ff ff       	mov    $0xffffffff,%eax
  402cb4:	e9 b1 00 00 00       	jmpq   402d6a <init_driver+0x1d7>
  402cb9:	48 c7 04 24 00 00 00 	movq   $0x0,(%rsp)
  402cc0:	00 
  402cc1:	48 c7 44 24 08 00 00 	movq   $0x0,0x8(%rsp)
  402cc8:	00 00 
  402cca:	66 c7 04 24 02 00    	movw   $0x2,(%rsp)
  402cd0:	48 63 50 14          	movslq 0x14(%rax),%rdx
  402cd4:	48 8b 40 18          	mov    0x18(%rax),%rax
  402cd8:	48 8b 30             	mov    (%rax),%rsi
  402cdb:	48 8d 7c 24 04       	lea    0x4(%rsp),%rdi
  402ce0:	b9 0c 00 00 00       	mov    $0xc,%ecx
  402ce5:	e8 96 e0 ff ff       	callq  400d80 <__memmove_chk@plt>
  402cea:	66 c7 44 24 02 3c 9a 	movw   $0x9a3c,0x2(%rsp)
  402cf1:	ba 10 00 00 00       	mov    $0x10,%edx
  402cf6:	48 89 e6             	mov    %rsp,%rsi
  402cf9:	89 df                	mov    %ebx,%edi
  402cfb:	e8 60 e1 ff ff       	callq  400e60 <connect@plt>
  402d00:	85 c0                	test   %eax,%eax
  402d02:	79 50                	jns    402d54 <init_driver+0x1c1>
  402d04:	48 b8 45 72 72 6f 72 	movabs $0x55203a726f727245,%rax
  402d0b:	3a 20 55 
  402d0e:	48 89 45 00          	mov    %rax,0x0(%rbp)
  402d12:	48 b8 6e 61 62 6c 65 	movabs $0x6f7420656c62616e,%rax
  402d19:	20 74 6f 
  402d1c:	48 89 45 08          	mov    %rax,0x8(%rbp)
  402d20:	48 b8 20 63 6f 6e 6e 	movabs $0x7463656e6e6f6320,%rax
  402d27:	65 63 74 
  402d2a:	48 89 45 10          	mov    %rax,0x10(%rbp)
  402d2e:	48 b8 20 74 6f 20 73 	movabs $0x76726573206f7420,%rax
  402d35:	65 72 76 
  402d38:	48 89 45 18          	mov    %rax,0x18(%rbp)
  402d3c:	66 c7 45 20 65 72    	movw   $0x7265,0x20(%rbp)
  402d42:	c6 45 22 00          	movb   $0x0,0x22(%rbp)
  402d46:	89 df                	mov    %ebx,%edi
  402d48:	e8 e3 df ff ff       	callq  400d30 <close@plt>
  402d4d:	b8 ff ff ff ff       	mov    $0xffffffff,%eax
  402d52:	eb 16                	jmp    402d6a <init_driver+0x1d7>
  402d54:	89 df                	mov    %ebx,%edi
  402d56:	e8 d5 df ff ff       	callq  400d30 <close@plt>
  402d5b:	66 c7 45 00 4f 4b    	movw   $0x4b4f,0x0(%rbp)
  402d61:	c6 45 02 00          	movb   $0x0,0x2(%rbp)
  402d65:	b8 00 00 00 00       	mov    $0x0,%eax
  402d6a:	48 8b 4c 24 18       	mov    0x18(%rsp),%rcx
  402d6f:	64 48 33 0c 25 28 00 	xor    %fs:0x28,%rcx
  402d76:	00 00 
  402d78:	74 05                	je     402d7f <init_driver+0x1ec>
  402d7a:	e8 71 df ff ff       	callq  400cf0 <__stack_chk_fail@plt>
  402d7f:	48 83 c4 28          	add    $0x28,%rsp
  402d83:	5b                   	pop    %rbx
  402d84:	5d                   	pop    %rbp
  402d85:	c3                   	retq   

0000000000402d86 <driver_post>:
  402d86:	53                   	push   %rbx
  402d87:	4c 89 cb             	mov    %r9,%rbx
  402d8a:	45 85 c0             	test   %r8d,%r8d
  402d8d:	74 27                	je     402db6 <driver_post+0x30>
  402d8f:	48 89 ca             	mov    %rcx,%rdx
  402d92:	be 5a 38 40 00       	mov    $0x40385a,%esi
  402d97:	bf 01 00 00 00       	mov    $0x1,%edi
  402d9c:	b8 00 00 00 00       	mov    $0x0,%eax
  402da1:	e8 5a e0 ff ff       	callq  400e00 <__printf_chk@plt>
  402da6:	66 c7 03 4f 4b       	movw   $0x4b4f,(%rbx)
  402dab:	c6 43 02 00          	movb   $0x0,0x2(%rbx)
  402daf:	b8 00 00 00 00       	mov    $0x0,%eax
  402db4:	eb 3f                	jmp    402df5 <driver_post+0x6f>
  402db6:	48 85 ff             	test   %rdi,%rdi
  402db9:	74 2c                	je     402de7 <driver_post+0x61>
  402dbb:	80 3f 00             	cmpb   $0x0,(%rdi)
  402dbe:	74 27                	je     402de7 <driver_post+0x61>
  402dc0:	48 83 ec 08          	sub    $0x8,%rsp
  402dc4:	41 51                	push   %r9
  402dc6:	49 89 c9             	mov    %rcx,%r9
  402dc9:	49 89 d0             	mov    %rdx,%r8
  402dcc:	48 89 f9             	mov    %rdi,%rcx
  402dcf:	48 89 f2             	mov    %rsi,%rdx
  402dd2:	be 9a 3c 00 00       	mov    $0x3c9a,%esi
  402dd7:	bf 45 38 40 00       	mov    $0x403845,%edi
  402ddc:	e8 19 f6 ff ff       	callq  4023fa <submitr>
  402de1:	48 83 c4 10          	add    $0x10,%rsp
  402de5:	eb 0e                	jmp    402df5 <driver_post+0x6f>
  402de7:	66 c7 03 4f 4b       	movw   $0x4b4f,(%rbx)
  402dec:	c6 43 02 00          	movb   $0x0,0x2(%rbx)
  402df0:	b8 00 00 00 00       	mov    $0x0,%eax
  402df5:	5b                   	pop    %rbx
  402df6:	c3                   	retq   

0000000000402df7 <check>:
  402df7:	89 f8                	mov    %edi,%eax
  402df9:	c1 e8 1c             	shr    $0x1c,%eax
  402dfc:	85 c0                	test   %eax,%eax
  402dfe:	74 1d                	je     402e1d <check+0x26>
  402e00:	b9 00 00 00 00       	mov    $0x0,%ecx
  402e05:	eb 0b                	jmp    402e12 <check+0x1b>
  402e07:	89 f8                	mov    %edi,%eax
  402e09:	d3 e8                	shr    %cl,%eax
  402e0b:	3c 0a                	cmp    $0xa,%al
  402e0d:	74 14                	je     402e23 <check+0x2c>
  402e0f:	83 c1 08             	add    $0x8,%ecx
  402e12:	83 f9 1f             	cmp    $0x1f,%ecx
  402e15:	7e f0                	jle    402e07 <check+0x10>
  402e17:	b8 01 00 00 00       	mov    $0x1,%eax
  402e1c:	c3                   	retq   
  402e1d:	b8 00 00 00 00       	mov    $0x0,%eax
  402e22:	c3                   	retq   
  402e23:	b8 00 00 00 00       	mov    $0x0,%eax
  402e28:	c3                   	retq   

0000000000402e29 <gencookie>:
  402e29:	53                   	push   %rbx
  402e2a:	83 c7 01             	add    $0x1,%edi
  402e2d:	e8 6e de ff ff       	callq  400ca0 <srandom@plt>
  402e32:	e8 89 df ff ff       	callq  400dc0 <random@plt>
  402e37:	89 c3                	mov    %eax,%ebx
  402e39:	89 c7                	mov    %eax,%edi
  402e3b:	e8 b7 ff ff ff       	callq  402df7 <check>
  402e40:	85 c0                	test   %eax,%eax
  402e42:	74 ee                	je     402e32 <gencookie+0x9>
  402e44:	89 d8                	mov    %ebx,%eax
  402e46:	5b                   	pop    %rbx
  402e47:	c3                   	retq   
  402e48:	0f 1f 84 00 00 00 00 	nopl   0x0(%rax,%rax,1)
  402e4f:	00 

0000000000402e50 <__libc_csu_init>:
  402e50:	41 57                	push   %r15
  402e52:	41 56                	push   %r14
  402e54:	41 89 ff             	mov    %edi,%r15d
  402e57:	41 55                	push   %r13
  402e59:	41 54                	push   %r12
  402e5b:	4c 8d 25 ae 1f 20 00 	lea    0x201fae(%rip),%r12        # 604e10 <__frame_dummy_init_array_entry>
  402e62:	55                   	push   %rbp
  402e63:	48 8d 2d ae 1f 20 00 	lea    0x201fae(%rip),%rbp        # 604e18 <__do_global_dtors_aux_fini_array_entry>
  402e6a:	53                   	push   %rbx
  402e6b:	49 89 f6             	mov    %rsi,%r14
  402e6e:	49 89 d5             	mov    %rdx,%r13
  402e71:	4c 29 e5             	sub    %r12,%rbp
  402e74:	48 83 ec 08          	sub    $0x8,%rsp
  402e78:	48 c1 fd 03          	sar    $0x3,%rbp
  402e7c:	e8 c7 dd ff ff       	callq  400c48 <_init>
  402e81:	48 85 ed             	test   %rbp,%rbp
  402e84:	74 20                	je     402ea6 <__libc_csu_init+0x56>
  402e86:	31 db                	xor    %ebx,%ebx
  402e88:	0f 1f 84 00 00 00 00 	nopl   0x0(%rax,%rax,1)
  402e8f:	00 
  402e90:	4c 89 ea             	mov    %r13,%rdx
  402e93:	4c 89 f6             	mov    %r14,%rsi
  402e96:	44 89 ff             	mov    %r15d,%edi
  402e99:	41 ff 14 dc          	callq  *(%r12,%rbx,8)
  402e9d:	48 83 c3 01          	add    $0x1,%rbx
  402ea1:	48 39 eb             	cmp    %rbp,%rbx
  402ea4:	75 ea                	jne    402e90 <__libc_csu_init+0x40>
  402ea6:	48 83 c4 08          	add    $0x8,%rsp
  402eaa:	5b                   	pop    %rbx
  402eab:	5d                   	pop    %rbp
  402eac:	41 5c                	pop    %r12
  402eae:	41 5d                	pop    %r13
  402eb0:	41 5e                	pop    %r14
  402eb2:	41 5f                	pop    %r15
  402eb4:	c3                   	retq   
  402eb5:	90                   	nop
  402eb6:	66 2e 0f 1f 84 00 00 	nopw   %cs:0x0(%rax,%rax,1)
  402ebd:	00 00 00 

0000000000402ec0 <__libc_csu_fini>:
  402ec0:	f3 c3                	repz retq 

Disassembly of section .fini:

0000000000402ec4 <_fini>:
  402ec4:	48 83 ec 08          	sub    $0x8,%rsp
  402ec8:	48 83 c4 08          	add    $0x8,%rsp
  402ecc:	c3                   	retq   
