
rtarget:     file format elf64-x86-64


Disassembly of section .init:

0000000000400c48 <_init>:
  400c48:	48 83 ec 08          	sub    $0x8,%rsp
  400c4c:	48 8b 05 a5 43 20 00 	mov    0x2043a5(%rip),%rax        # 604ff8 <__gmon_start__>
  400c53:	48 85 c0             	test   %rax,%rax
  400c56:	74 05                	je     400c5d <_init+0x15>
  400c58:	e8 43 02 00 00       	callq  400ea0 <__gmon_start__@plt>
  400c5d:	48 83 c4 08          	add    $0x8,%rsp
  400c61:	c3                   	retq   

Disassembly of section .plt:

0000000000400c70 <.plt>:
  400c70:	ff 35 92 43 20 00    	pushq  0x204392(%rip)        # 605008 <_GLOBAL_OFFSET_TABLE_+0x8>
  400c76:	ff 25 94 43 20 00    	jmpq   *0x204394(%rip)        # 605010 <_GLOBAL_OFFSET_TABLE_+0x10>
  400c7c:	0f 1f 40 00          	nopl   0x0(%rax)

0000000000400c80 <strcasecmp@plt>:
  400c80:	ff 25 92 43 20 00    	jmpq   *0x204392(%rip)        # 605018 <strcasecmp@GLIBC_2.2.5>
  400c86:	68 00 00 00 00       	pushq  $0x0
  400c8b:	e9 e0 ff ff ff       	jmpq   400c70 <.plt>

0000000000400c90 <__errno_location@plt>:
  400c90:	ff 25 8a 43 20 00    	jmpq   *0x20438a(%rip)        # 605020 <__errno_location@GLIBC_2.2.5>
  400c96:	68 01 00 00 00       	pushq  $0x1
  400c9b:	e9 d0 ff ff ff       	jmpq   400c70 <.plt>

0000000000400ca0 <srandom@plt>:
  400ca0:	ff 25 82 43 20 00    	jmpq   *0x204382(%rip)        # 605028 <srandom@GLIBC_2.2.5>
  400ca6:	68 02 00 00 00       	pushq  $0x2
  400cab:	e9 c0 ff ff ff       	jmpq   400c70 <.plt>

0000000000400cb0 <strncmp@plt>:
  400cb0:	ff 25 7a 43 20 00    	jmpq   *0x20437a(%rip)        # 605030 <strncmp@GLIBC_2.2.5>
  400cb6:	68 03 00 00 00       	pushq  $0x3
  400cbb:	e9 b0 ff ff ff       	jmpq   400c70 <.plt>

0000000000400cc0 <strcpy@plt>:
  400cc0:	ff 25 72 43 20 00    	jmpq   *0x204372(%rip)        # 605038 <strcpy@GLIBC_2.2.5>
  400cc6:	68 04 00 00 00       	pushq  $0x4
  400ccb:	e9 a0 ff ff ff       	jmpq   400c70 <.plt>

0000000000400cd0 <puts@plt>:
  400cd0:	ff 25 6a 43 20 00    	jmpq   *0x20436a(%rip)        # 605040 <puts@GLIBC_2.2.5>
  400cd6:	68 05 00 00 00       	pushq  $0x5
  400cdb:	e9 90 ff ff ff       	jmpq   400c70 <.plt>

0000000000400ce0 <write@plt>:
  400ce0:	ff 25 62 43 20 00    	jmpq   *0x204362(%rip)        # 605048 <write@GLIBC_2.2.5>
  400ce6:	68 06 00 00 00       	pushq  $0x6
  400ceb:	e9 80 ff ff ff       	jmpq   400c70 <.plt>

0000000000400cf0 <__stack_chk_fail@plt>:
  400cf0:	ff 25 5a 43 20 00    	jmpq   *0x20435a(%rip)        # 605050 <__stack_chk_fail@GLIBC_2.4>
  400cf6:	68 07 00 00 00       	pushq  $0x7
  400cfb:	e9 70 ff ff ff       	jmpq   400c70 <.plt>

0000000000400d00 <mmap@plt>:
  400d00:	ff 25 52 43 20 00    	jmpq   *0x204352(%rip)        # 605058 <mmap@GLIBC_2.2.5>
  400d06:	68 08 00 00 00       	pushq  $0x8
  400d0b:	e9 60 ff ff ff       	jmpq   400c70 <.plt>

0000000000400d10 <memset@plt>:
  400d10:	ff 25 4a 43 20 00    	jmpq   *0x20434a(%rip)        # 605060 <memset@GLIBC_2.2.5>
  400d16:	68 09 00 00 00       	pushq  $0x9
  400d1b:	e9 50 ff ff ff       	jmpq   400c70 <.plt>

0000000000400d20 <alarm@plt>:
  400d20:	ff 25 42 43 20 00    	jmpq   *0x204342(%rip)        # 605068 <alarm@GLIBC_2.2.5>
  400d26:	68 0a 00 00 00       	pushq  $0xa
  400d2b:	e9 40 ff ff ff       	jmpq   400c70 <.plt>

0000000000400d30 <close@plt>:
  400d30:	ff 25 3a 43 20 00    	jmpq   *0x20433a(%rip)        # 605070 <close@GLIBC_2.2.5>
  400d36:	68 0b 00 00 00       	pushq  $0xb
  400d3b:	e9 30 ff ff ff       	jmpq   400c70 <.plt>

0000000000400d40 <read@plt>:
  400d40:	ff 25 32 43 20 00    	jmpq   *0x204332(%rip)        # 605078 <read@GLIBC_2.2.5>
  400d46:	68 0c 00 00 00       	pushq  $0xc
  400d4b:	e9 20 ff ff ff       	jmpq   400c70 <.plt>

0000000000400d50 <__libc_start_main@plt>:
  400d50:	ff 25 2a 43 20 00    	jmpq   *0x20432a(%rip)        # 605080 <__libc_start_main@GLIBC_2.2.5>
  400d56:	68 0d 00 00 00       	pushq  $0xd
  400d5b:	e9 10 ff ff ff       	jmpq   400c70 <.plt>

0000000000400d60 <signal@plt>:
  400d60:	ff 25 22 43 20 00    	jmpq   *0x204322(%rip)        # 605088 <signal@GLIBC_2.2.5>
  400d66:	68 0e 00 00 00       	pushq  $0xe
  400d6b:	e9 00 ff ff ff       	jmpq   400c70 <.plt>

0000000000400d70 <gethostbyname@plt>:
  400d70:	ff 25 1a 43 20 00    	jmpq   *0x20431a(%rip)        # 605090 <gethostbyname@GLIBC_2.2.5>
  400d76:	68 0f 00 00 00       	pushq  $0xf
  400d7b:	e9 f0 fe ff ff       	jmpq   400c70 <.plt>

0000000000400d80 <__memmove_chk@plt>:
  400d80:	ff 25 12 43 20 00    	jmpq   *0x204312(%rip)        # 605098 <__memmove_chk@GLIBC_2.3.4>
  400d86:	68 10 00 00 00       	pushq  $0x10
  400d8b:	e9 e0 fe ff ff       	jmpq   400c70 <.plt>

0000000000400d90 <strtol@plt>:
  400d90:	ff 25 0a 43 20 00    	jmpq   *0x20430a(%rip)        # 6050a0 <strtol@GLIBC_2.2.5>
  400d96:	68 11 00 00 00       	pushq  $0x11
  400d9b:	e9 d0 fe ff ff       	jmpq   400c70 <.plt>

0000000000400da0 <memcpy@plt>:
  400da0:	ff 25 02 43 20 00    	jmpq   *0x204302(%rip)        # 6050a8 <memcpy@GLIBC_2.14>
  400da6:	68 12 00 00 00       	pushq  $0x12
  400dab:	e9 c0 fe ff ff       	jmpq   400c70 <.plt>

0000000000400db0 <time@plt>:
  400db0:	ff 25 fa 42 20 00    	jmpq   *0x2042fa(%rip)        # 6050b0 <time@GLIBC_2.2.5>
  400db6:	68 13 00 00 00       	pushq  $0x13
  400dbb:	e9 b0 fe ff ff       	jmpq   400c70 <.plt>

0000000000400dc0 <random@plt>:
  400dc0:	ff 25 f2 42 20 00    	jmpq   *0x2042f2(%rip)        # 6050b8 <random@GLIBC_2.2.5>
  400dc6:	68 14 00 00 00       	pushq  $0x14
  400dcb:	e9 a0 fe ff ff       	jmpq   400c70 <.plt>

0000000000400dd0 <_IO_getc@plt>:
  400dd0:	ff 25 ea 42 20 00    	jmpq   *0x2042ea(%rip)        # 6050c0 <_IO_getc@GLIBC_2.2.5>
  400dd6:	68 15 00 00 00       	pushq  $0x15
  400ddb:	e9 90 fe ff ff       	jmpq   400c70 <.plt>

0000000000400de0 <__isoc99_sscanf@plt>:
  400de0:	ff 25 e2 42 20 00    	jmpq   *0x2042e2(%rip)        # 6050c8 <__isoc99_sscanf@GLIBC_2.7>
  400de6:	68 16 00 00 00       	pushq  $0x16
  400deb:	e9 80 fe ff ff       	jmpq   400c70 <.plt>

0000000000400df0 <munmap@plt>:
  400df0:	ff 25 da 42 20 00    	jmpq   *0x2042da(%rip)        # 6050d0 <munmap@GLIBC_2.2.5>
  400df6:	68 17 00 00 00       	pushq  $0x17
  400dfb:	e9 70 fe ff ff       	jmpq   400c70 <.plt>

0000000000400e00 <__printf_chk@plt>:
  400e00:	ff 25 d2 42 20 00    	jmpq   *0x2042d2(%rip)        # 6050d8 <__printf_chk@GLIBC_2.3.4>
  400e06:	68 18 00 00 00       	pushq  $0x18
  400e0b:	e9 60 fe ff ff       	jmpq   400c70 <.plt>

0000000000400e10 <fopen@plt>:
  400e10:	ff 25 ca 42 20 00    	jmpq   *0x2042ca(%rip)        # 6050e0 <fopen@GLIBC_2.2.5>
  400e16:	68 19 00 00 00       	pushq  $0x19
  400e1b:	e9 50 fe ff ff       	jmpq   400c70 <.plt>

0000000000400e20 <getopt@plt>:
  400e20:	ff 25 c2 42 20 00    	jmpq   *0x2042c2(%rip)        # 6050e8 <getopt@GLIBC_2.2.5>
  400e26:	68 1a 00 00 00       	pushq  $0x1a
  400e2b:	e9 40 fe ff ff       	jmpq   400c70 <.plt>

0000000000400e30 <strtoul@plt>:
  400e30:	ff 25 ba 42 20 00    	jmpq   *0x2042ba(%rip)        # 6050f0 <strtoul@GLIBC_2.2.5>
  400e36:	68 1b 00 00 00       	pushq  $0x1b
  400e3b:	e9 30 fe ff ff       	jmpq   400c70 <.plt>

0000000000400e40 <gethostname@plt>:
  400e40:	ff 25 b2 42 20 00    	jmpq   *0x2042b2(%rip)        # 6050f8 <gethostname@GLIBC_2.2.5>
  400e46:	68 1c 00 00 00       	pushq  $0x1c
  400e4b:	e9 20 fe ff ff       	jmpq   400c70 <.plt>

0000000000400e50 <exit@plt>:
  400e50:	ff 25 aa 42 20 00    	jmpq   *0x2042aa(%rip)        # 605100 <exit@GLIBC_2.2.5>
  400e56:	68 1d 00 00 00       	pushq  $0x1d
  400e5b:	e9 10 fe ff ff       	jmpq   400c70 <.plt>

0000000000400e60 <connect@plt>:
  400e60:	ff 25 a2 42 20 00    	jmpq   *0x2042a2(%rip)        # 605108 <connect@GLIBC_2.2.5>
  400e66:	68 1e 00 00 00       	pushq  $0x1e
  400e6b:	e9 00 fe ff ff       	jmpq   400c70 <.plt>

0000000000400e70 <__fprintf_chk@plt>:
  400e70:	ff 25 9a 42 20 00    	jmpq   *0x20429a(%rip)        # 605110 <__fprintf_chk@GLIBC_2.3.4>
  400e76:	68 1f 00 00 00       	pushq  $0x1f
  400e7b:	e9 f0 fd ff ff       	jmpq   400c70 <.plt>

0000000000400e80 <__sprintf_chk@plt>:
  400e80:	ff 25 92 42 20 00    	jmpq   *0x204292(%rip)        # 605118 <__sprintf_chk@GLIBC_2.3.4>
  400e86:	68 20 00 00 00       	pushq  $0x20
  400e8b:	e9 e0 fd ff ff       	jmpq   400c70 <.plt>

0000000000400e90 <socket@plt>:
  400e90:	ff 25 8a 42 20 00    	jmpq   *0x20428a(%rip)        # 605120 <socket@GLIBC_2.2.5>
  400e96:	68 21 00 00 00       	pushq  $0x21
  400e9b:	e9 d0 fd ff ff       	jmpq   400c70 <.plt>

Disassembly of section .plt.got:

0000000000400ea0 <__gmon_start__@plt>:
  400ea0:	ff 25 52 41 20 00    	jmpq   *0x204152(%rip)        # 604ff8 <__gmon_start__>
  400ea6:	66 90                	xchg   %ax,%ax

Disassembly of section .text:

0000000000400eb0 <_start>:
  400eb0:	31 ed                	xor    %ebp,%ebp
  400eb2:	49 89 d1             	mov    %rdx,%r9
  400eb5:	5e                   	pop    %rsi
  400eb6:	48 89 e2             	mov    %rsp,%rdx
  400eb9:	48 83 e4 f0          	and    $0xfffffffffffffff0,%rsp
  400ebd:	50                   	push   %rax
  400ebe:	54                   	push   %rsp
  400ebf:	49 c7 c0 e0 2f 40 00 	mov    $0x402fe0,%r8
  400ec6:	48 c7 c1 70 2f 40 00 	mov    $0x402f70,%rcx
  400ecd:	48 c7 c7 b5 11 40 00 	mov    $0x4011b5,%rdi
  400ed4:	e8 77 fe ff ff       	callq  400d50 <__libc_start_main@plt>
  400ed9:	f4                   	hlt    
  400eda:	66 0f 1f 44 00 00    	nopw   0x0(%rax,%rax,1)

0000000000400ee0 <deregister_tm_clones>:
  400ee0:	b8 b7 54 60 00       	mov    $0x6054b7,%eax
  400ee5:	55                   	push   %rbp
  400ee6:	48 2d b0 54 60 00    	sub    $0x6054b0,%rax
  400eec:	48 83 f8 0e          	cmp    $0xe,%rax
  400ef0:	48 89 e5             	mov    %rsp,%rbp
  400ef3:	76 1b                	jbe    400f10 <deregister_tm_clones+0x30>
  400ef5:	b8 00 00 00 00       	mov    $0x0,%eax
  400efa:	48 85 c0             	test   %rax,%rax
  400efd:	74 11                	je     400f10 <deregister_tm_clones+0x30>
  400eff:	5d                   	pop    %rbp
  400f00:	bf b0 54 60 00       	mov    $0x6054b0,%edi
  400f05:	ff e0                	jmpq   *%rax
  400f07:	66 0f 1f 84 00 00 00 	nopw   0x0(%rax,%rax,1)
  400f0e:	00 00 
  400f10:	5d                   	pop    %rbp
  400f11:	c3                   	retq   
  400f12:	0f 1f 40 00          	nopl   0x0(%rax)
  400f16:	66 2e 0f 1f 84 00 00 	nopw   %cs:0x0(%rax,%rax,1)
  400f1d:	00 00 00 

0000000000400f20 <register_tm_clones>:
  400f20:	be b0 54 60 00       	mov    $0x6054b0,%esi
  400f25:	55                   	push   %rbp
  400f26:	48 81 ee b0 54 60 00 	sub    $0x6054b0,%rsi
  400f2d:	48 c1 fe 03          	sar    $0x3,%rsi
  400f31:	48 89 e5             	mov    %rsp,%rbp
  400f34:	48 89 f0             	mov    %rsi,%rax
  400f37:	48 c1 e8 3f          	shr    $0x3f,%rax
  400f3b:	48 01 c6             	add    %rax,%rsi
  400f3e:	48 d1 fe             	sar    %rsi
  400f41:	74 15                	je     400f58 <register_tm_clones+0x38>
  400f43:	b8 00 00 00 00       	mov    $0x0,%eax
  400f48:	48 85 c0             	test   %rax,%rax
  400f4b:	74 0b                	je     400f58 <register_tm_clones+0x38>
  400f4d:	5d                   	pop    %rbp
  400f4e:	bf b0 54 60 00       	mov    $0x6054b0,%edi
  400f53:	ff e0                	jmpq   *%rax
  400f55:	0f 1f 00             	nopl   (%rax)
  400f58:	5d                   	pop    %rbp
  400f59:	c3                   	retq   
  400f5a:	66 0f 1f 44 00 00    	nopw   0x0(%rax,%rax,1)

0000000000400f60 <__do_global_dtors_aux>:
  400f60:	80 3d 81 45 20 00 00 	cmpb   $0x0,0x204581(%rip)        # 6054e8 <completed.7594>
  400f67:	75 11                	jne    400f7a <__do_global_dtors_aux+0x1a>
  400f69:	55                   	push   %rbp
  400f6a:	48 89 e5             	mov    %rsp,%rbp
  400f6d:	e8 6e ff ff ff       	callq  400ee0 <deregister_tm_clones>
  400f72:	5d                   	pop    %rbp
  400f73:	c6 05 6e 45 20 00 01 	movb   $0x1,0x20456e(%rip)        # 6054e8 <completed.7594>
  400f7a:	f3 c3                	repz retq 
  400f7c:	0f 1f 40 00          	nopl   0x0(%rax)

0000000000400f80 <frame_dummy>:
  400f80:	bf 20 4e 60 00       	mov    $0x604e20,%edi
  400f85:	48 83 3f 00          	cmpq   $0x0,(%rdi)
  400f89:	75 05                	jne    400f90 <frame_dummy+0x10>
  400f8b:	eb 93                	jmp    400f20 <register_tm_clones>
  400f8d:	0f 1f 00             	nopl   (%rax)
  400f90:	b8 00 00 00 00       	mov    $0x0,%eax
  400f95:	48 85 c0             	test   %rax,%rax
  400f98:	74 f1                	je     400f8b <frame_dummy+0xb>
  400f9a:	55                   	push   %rbp
  400f9b:	48 89 e5             	mov    %rsp,%rbp
  400f9e:	ff d0                	callq  *%rax
  400fa0:	5d                   	pop    %rbp
  400fa1:	e9 7a ff ff ff       	jmpq   400f20 <register_tm_clones>

0000000000400fa6 <usage>:
  400fa6:	48 83 ec 08          	sub    $0x8,%rsp
  400faa:	48 89 fa             	mov    %rdi,%rdx
  400fad:	83 3d 74 45 20 00 00 	cmpl   $0x0,0x204574(%rip)        # 605528 <is_checker>
  400fb4:	74 3e                	je     400ff4 <usage+0x4e>
  400fb6:	be f8 2f 40 00       	mov    $0x402ff8,%esi
  400fbb:	bf 01 00 00 00       	mov    $0x1,%edi
  400fc0:	b8 00 00 00 00       	mov    $0x0,%eax
  400fc5:	e8 36 fe ff ff       	callq  400e00 <__printf_chk@plt>
  400fca:	bf 30 30 40 00       	mov    $0x403030,%edi
  400fcf:	e8 fc fc ff ff       	callq  400cd0 <puts@plt>
  400fd4:	bf a8 31 40 00       	mov    $0x4031a8,%edi
  400fd9:	e8 f2 fc ff ff       	callq  400cd0 <puts@plt>
  400fde:	bf 58 30 40 00       	mov    $0x403058,%edi
  400fe3:	e8 e8 fc ff ff       	callq  400cd0 <puts@plt>
  400fe8:	bf c2 31 40 00       	mov    $0x4031c2,%edi
  400fed:	e8 de fc ff ff       	callq  400cd0 <puts@plt>
  400ff2:	eb 32                	jmp    401026 <usage+0x80>
  400ff4:	be de 31 40 00       	mov    $0x4031de,%esi
  400ff9:	bf 01 00 00 00       	mov    $0x1,%edi
  400ffe:	b8 00 00 00 00       	mov    $0x0,%eax
  401003:	e8 f8 fd ff ff       	callq  400e00 <__printf_chk@plt>
  401008:	bf 80 30 40 00       	mov    $0x403080,%edi
  40100d:	e8 be fc ff ff       	callq  400cd0 <puts@plt>
  401012:	bf a8 30 40 00       	mov    $0x4030a8,%edi
  401017:	e8 b4 fc ff ff       	callq  400cd0 <puts@plt>
  40101c:	bf fc 31 40 00       	mov    $0x4031fc,%edi
  401021:	e8 aa fc ff ff       	callq  400cd0 <puts@plt>
  401026:	bf 00 00 00 00       	mov    $0x0,%edi
  40102b:	e8 20 fe ff ff       	callq  400e50 <exit@plt>

0000000000401030 <initialize_target>:
  401030:	55                   	push   %rbp
  401031:	53                   	push   %rbx
  401032:	48 81 ec 18 21 00 00 	sub    $0x2118,%rsp
  401039:	89 f5                	mov    %esi,%ebp
  40103b:	64 48 8b 04 25 28 00 	mov    %fs:0x28,%rax
  401042:	00 00 
  401044:	48 89 84 24 08 21 00 	mov    %rax,0x2108(%rsp)
  40104b:	00 
  40104c:	31 c0                	xor    %eax,%eax
  40104e:	89 3d c4 44 20 00    	mov    %edi,0x2044c4(%rip)        # 605518 <check_level>
  401054:	8b 3d 0e 41 20 00    	mov    0x20410e(%rip),%edi        # 605168 <target_id>
  40105a:	e8 ef 1e 00 00       	callq  402f4e <gencookie>
  40105f:	89 05 bf 44 20 00    	mov    %eax,0x2044bf(%rip)        # 605524 <cookie>
  401065:	89 c7                	mov    %eax,%edi
  401067:	e8 e2 1e 00 00       	callq  402f4e <gencookie>
  40106c:	89 05 ae 44 20 00    	mov    %eax,0x2044ae(%rip)        # 605520 <authkey>
  401072:	8b 05 f0 40 20 00    	mov    0x2040f0(%rip),%eax        # 605168 <target_id>
  401078:	8d 78 01             	lea    0x1(%rax),%edi
  40107b:	e8 20 fc ff ff       	callq  400ca0 <srandom@plt>
  401080:	e8 3b fd ff ff       	callq  400dc0 <random@plt>
  401085:	89 c7                	mov    %eax,%edi
  401087:	e8 03 03 00 00       	callq  40138f <scramble>
  40108c:	89 c3                	mov    %eax,%ebx
  40108e:	85 ed                	test   %ebp,%ebp
  401090:	74 18                	je     4010aa <initialize_target+0x7a>
  401092:	bf 00 00 00 00       	mov    $0x0,%edi
  401097:	e8 14 fd ff ff       	callq  400db0 <time@plt>
  40109c:	89 c7                	mov    %eax,%edi
  40109e:	e8 fd fb ff ff       	callq  400ca0 <srandom@plt>
  4010a3:	e8 18 fd ff ff       	callq  400dc0 <random@plt>
  4010a8:	eb 05                	jmp    4010af <initialize_target+0x7f>
  4010aa:	b8 00 00 00 00       	mov    $0x0,%eax
  4010af:	01 c3                	add    %eax,%ebx
  4010b1:	0f b7 db             	movzwl %bx,%ebx
  4010b4:	8d 04 dd 00 01 00 00 	lea    0x100(,%rbx,8),%eax
  4010bb:	89 c0                	mov    %eax,%eax
  4010bd:	48 89 05 dc 43 20 00 	mov    %rax,0x2043dc(%rip)        # 6054a0 <buf_offset>
  4010c4:	c6 05 7d 50 20 00 72 	movb   $0x72,0x20507d(%rip)        # 606148 <target_prefix>
  4010cb:	83 3d d6 43 20 00 00 	cmpl   $0x0,0x2043d6(%rip)        # 6054a8 <notify>
  4010d2:	0f 84 bb 00 00 00    	je     401193 <initialize_target+0x163>
  4010d8:	83 3d 49 44 20 00 00 	cmpl   $0x0,0x204449(%rip)        # 605528 <is_checker>
  4010df:	0f 85 ae 00 00 00    	jne    401193 <initialize_target+0x163>
  4010e5:	be 00 01 00 00       	mov    $0x100,%esi
  4010ea:	48 89 e7             	mov    %rsp,%rdi
  4010ed:	e8 4e fd ff ff       	callq  400e40 <gethostname@plt>
  4010f2:	85 c0                	test   %eax,%eax
  4010f4:	74 25                	je     40111b <initialize_target+0xeb>
  4010f6:	bf d8 30 40 00       	mov    $0x4030d8,%edi
  4010fb:	e8 d0 fb ff ff       	callq  400cd0 <puts@plt>
  401100:	bf 08 00 00 00       	mov    $0x8,%edi
  401105:	e8 46 fd ff ff       	callq  400e50 <exit@plt>
  40110a:	48 89 e6             	mov    %rsp,%rsi
  40110d:	e8 6e fb ff ff       	callq  400c80 <strcasecmp@plt>
  401112:	85 c0                	test   %eax,%eax
  401114:	74 21                	je     401137 <initialize_target+0x107>
  401116:	83 c3 01             	add    $0x1,%ebx
  401119:	eb 05                	jmp    401120 <initialize_target+0xf0>
  40111b:	bb 00 00 00 00       	mov    $0x0,%ebx
  401120:	48 63 c3             	movslq %ebx,%rax
  401123:	48 8b 3c c5 80 51 60 	mov    0x605180(,%rax,8),%rdi
  40112a:	00 
  40112b:	48 85 ff             	test   %rdi,%rdi
  40112e:	75 da                	jne    40110a <initialize_target+0xda>
  401130:	b8 00 00 00 00       	mov    $0x0,%eax
  401135:	eb 05                	jmp    40113c <initialize_target+0x10c>
  401137:	b8 01 00 00 00       	mov    $0x1,%eax
  40113c:	85 c0                	test   %eax,%eax
  40113e:	75 1c                	jne    40115c <initialize_target+0x12c>
  401140:	48 89 e2             	mov    %rsp,%rdx
  401143:	be 10 31 40 00       	mov    $0x403110,%esi
  401148:	bf 01 00 00 00       	mov    $0x1,%edi
  40114d:	e8 ae fc ff ff       	callq  400e00 <__printf_chk@plt>
  401152:	bf 08 00 00 00       	mov    $0x8,%edi
  401157:	e8 f4 fc ff ff       	callq  400e50 <exit@plt>
  40115c:	48 8d bc 24 00 01 00 	lea    0x100(%rsp),%rdi
  401163:	00 
  401164:	e8 4f 1b 00 00       	callq  402cb8 <init_driver>
  401169:	85 c0                	test   %eax,%eax
  40116b:	79 26                	jns    401193 <initialize_target+0x163>
  40116d:	48 8d 94 24 00 01 00 	lea    0x100(%rsp),%rdx
  401174:	00 
  401175:	be 50 31 40 00       	mov    $0x403150,%esi
  40117a:	bf 01 00 00 00       	mov    $0x1,%edi
  40117f:	b8 00 00 00 00       	mov    $0x0,%eax
  401184:	e8 77 fc ff ff       	callq  400e00 <__printf_chk@plt>
  401189:	bf 08 00 00 00       	mov    $0x8,%edi
  40118e:	e8 bd fc ff ff       	callq  400e50 <exit@plt>
  401193:	48 8b 84 24 08 21 00 	mov    0x2108(%rsp),%rax
  40119a:	00 
  40119b:	64 48 33 04 25 28 00 	xor    %fs:0x28,%rax
  4011a2:	00 00 
  4011a4:	74 05                	je     4011ab <initialize_target+0x17b>
  4011a6:	e8 45 fb ff ff       	callq  400cf0 <__stack_chk_fail@plt>
  4011ab:	48 81 c4 18 21 00 00 	add    $0x2118,%rsp
  4011b2:	5b                   	pop    %rbx
  4011b3:	5d                   	pop    %rbp
  4011b4:	c3                   	retq   

00000000004011b5 <main>:
  4011b5:	41 56                	push   %r14
  4011b7:	41 55                	push   %r13
  4011b9:	41 54                	push   %r12
  4011bb:	55                   	push   %rbp
  4011bc:	53                   	push   %rbx
  4011bd:	41 89 fc             	mov    %edi,%r12d
  4011c0:	48 89 f3             	mov    %rsi,%rbx
  4011c3:	be f3 1f 40 00       	mov    $0x401ff3,%esi
  4011c8:	bf 0b 00 00 00       	mov    $0xb,%edi
  4011cd:	e8 8e fb ff ff       	callq  400d60 <signal@plt>
  4011d2:	be a5 1f 40 00       	mov    $0x401fa5,%esi
  4011d7:	bf 07 00 00 00       	mov    $0x7,%edi
  4011dc:	e8 7f fb ff ff       	callq  400d60 <signal@plt>
  4011e1:	be 41 20 40 00       	mov    $0x402041,%esi
  4011e6:	bf 04 00 00 00       	mov    $0x4,%edi
  4011eb:	e8 70 fb ff ff       	callq  400d60 <signal@plt>
  4011f0:	83 3d 31 43 20 00 00 	cmpl   $0x0,0x204331(%rip)        # 605528 <is_checker>
  4011f7:	74 20                	je     401219 <main+0x64>
  4011f9:	be 8f 20 40 00       	mov    $0x40208f,%esi
  4011fe:	bf 0e 00 00 00       	mov    $0xe,%edi
  401203:	e8 58 fb ff ff       	callq  400d60 <signal@plt>
  401208:	bf 05 00 00 00       	mov    $0x5,%edi
  40120d:	e8 0e fb ff ff       	callq  400d20 <alarm@plt>
  401212:	bd 1a 32 40 00       	mov    $0x40321a,%ebp
  401217:	eb 05                	jmp    40121e <main+0x69>
  401219:	bd 15 32 40 00       	mov    $0x403215,%ebp
  40121e:	48 8b 05 9b 42 20 00 	mov    0x20429b(%rip),%rax        # 6054c0 <stdin@@GLIBC_2.2.5>
  401225:	48 89 05 e4 42 20 00 	mov    %rax,0x2042e4(%rip)        # 605510 <infile>
  40122c:	41 bd 00 00 00 00    	mov    $0x0,%r13d
  401232:	41 be 00 00 00 00    	mov    $0x0,%r14d
  401238:	e9 c6 00 00 00       	jmpq   401303 <main+0x14e>
  40123d:	83 e8 61             	sub    $0x61,%eax
  401240:	3c 10                	cmp    $0x10,%al
  401242:	0f 87 9c 00 00 00    	ja     4012e4 <main+0x12f>
  401248:	0f b6 c0             	movzbl %al,%eax
  40124b:	ff 24 c5 60 32 40 00 	jmpq   *0x403260(,%rax,8)
  401252:	48 8b 3b             	mov    (%rbx),%rdi
  401255:	e8 4c fd ff ff       	callq  400fa6 <usage>
  40125a:	be 5d 36 40 00       	mov    $0x40365d,%esi
  40125f:	48 8b 3d 62 42 20 00 	mov    0x204262(%rip),%rdi        # 6054c8 <optarg@@GLIBC_2.2.5>
  401266:	e8 a5 fb ff ff       	callq  400e10 <fopen@plt>
  40126b:	48 89 05 9e 42 20 00 	mov    %rax,0x20429e(%rip)        # 605510 <infile>
  401272:	48 85 c0             	test   %rax,%rax
  401275:	0f 85 88 00 00 00    	jne    401303 <main+0x14e>
  40127b:	48 8b 0d 46 42 20 00 	mov    0x204246(%rip),%rcx        # 6054c8 <optarg@@GLIBC_2.2.5>
  401282:	ba 22 32 40 00       	mov    $0x403222,%edx
  401287:	be 01 00 00 00       	mov    $0x1,%esi
  40128c:	48 8b 3d 4d 42 20 00 	mov    0x20424d(%rip),%rdi        # 6054e0 <stderr@@GLIBC_2.2.5>
  401293:	e8 d8 fb ff ff       	callq  400e70 <__fprintf_chk@plt>
  401298:	b8 01 00 00 00       	mov    $0x1,%eax
  40129d:	e9 e4 00 00 00       	jmpq   401386 <main+0x1d1>
  4012a2:	ba 10 00 00 00       	mov    $0x10,%edx
  4012a7:	be 00 00 00 00       	mov    $0x0,%esi
  4012ac:	48 8b 3d 15 42 20 00 	mov    0x204215(%rip),%rdi        # 6054c8 <optarg@@GLIBC_2.2.5>
  4012b3:	e8 78 fb ff ff       	callq  400e30 <strtoul@plt>
  4012b8:	41 89 c6             	mov    %eax,%r14d
  4012bb:	eb 46                	jmp    401303 <main+0x14e>
  4012bd:	ba 0a 00 00 00       	mov    $0xa,%edx
  4012c2:	be 00 00 00 00       	mov    $0x0,%esi
  4012c7:	48 8b 3d fa 41 20 00 	mov    0x2041fa(%rip),%rdi        # 6054c8 <optarg@@GLIBC_2.2.5>
  4012ce:	e8 bd fa ff ff       	callq  400d90 <strtol@plt>
  4012d3:	41 89 c5             	mov    %eax,%r13d
  4012d6:	eb 2b                	jmp    401303 <main+0x14e>
  4012d8:	c7 05 c6 41 20 00 00 	movl   $0x0,0x2041c6(%rip)        # 6054a8 <notify>
  4012df:	00 00 00 
  4012e2:	eb 1f                	jmp    401303 <main+0x14e>
  4012e4:	0f be d2             	movsbl %dl,%edx
  4012e7:	be 3f 32 40 00       	mov    $0x40323f,%esi
  4012ec:	bf 01 00 00 00       	mov    $0x1,%edi
  4012f1:	b8 00 00 00 00       	mov    $0x0,%eax
  4012f6:	e8 05 fb ff ff       	callq  400e00 <__printf_chk@plt>
  4012fb:	48 8b 3b             	mov    (%rbx),%rdi
  4012fe:	e8 a3 fc ff ff       	callq  400fa6 <usage>
  401303:	48 89 ea             	mov    %rbp,%rdx
  401306:	48 89 de             	mov    %rbx,%rsi
  401309:	44 89 e7             	mov    %r12d,%edi
  40130c:	e8 0f fb ff ff       	callq  400e20 <getopt@plt>
  401311:	89 c2                	mov    %eax,%edx
  401313:	3c ff                	cmp    $0xff,%al
  401315:	0f 85 22 ff ff ff    	jne    40123d <main+0x88>
  40131b:	be 01 00 00 00       	mov    $0x1,%esi
  401320:	44 89 ef             	mov    %r13d,%edi
  401323:	e8 08 fd ff ff       	callq  401030 <initialize_target>
  401328:	83 3d f9 41 20 00 00 	cmpl   $0x0,0x2041f9(%rip)        # 605528 <is_checker>
  40132f:	74 2a                	je     40135b <main+0x1a6>
  401331:	44 3b 35 e8 41 20 00 	cmp    0x2041e8(%rip),%r14d        # 605520 <authkey>
  401338:	74 21                	je     40135b <main+0x1a6>
  40133a:	44 89 f2             	mov    %r14d,%edx
  40133d:	be 78 31 40 00       	mov    $0x403178,%esi
  401342:	bf 01 00 00 00       	mov    $0x1,%edi
  401347:	b8 00 00 00 00       	mov    $0x0,%eax
  40134c:	e8 af fa ff ff       	callq  400e00 <__printf_chk@plt>
  401351:	b8 00 00 00 00       	mov    $0x0,%eax
  401356:	e8 e6 08 00 00       	callq  401c41 <check_fail>
  40135b:	8b 15 c3 41 20 00    	mov    0x2041c3(%rip),%edx        # 605524 <cookie>
  401361:	be 52 32 40 00       	mov    $0x403252,%esi
  401366:	bf 01 00 00 00       	mov    $0x1,%edi
  40136b:	b8 00 00 00 00       	mov    $0x0,%eax
  401370:	e8 8b fa ff ff       	callq  400e00 <__printf_chk@plt>
  401375:	48 8b 3d 24 41 20 00 	mov    0x204124(%rip),%rdi        # 6054a0 <buf_offset>
  40137c:	e8 61 0d 00 00       	callq  4020e2 <launch>
  401381:	b8 00 00 00 00       	mov    $0x0,%eax
  401386:	5b                   	pop    %rbx
  401387:	5d                   	pop    %rbp
  401388:	41 5c                	pop    %r12
  40138a:	41 5d                	pop    %r13
  40138c:	41 5e                	pop    %r14
  40138e:	c3                   	retq   

000000000040138f <scramble>:
  40138f:	48 83 ec 38          	sub    $0x38,%rsp
  401393:	64 48 8b 04 25 28 00 	mov    %fs:0x28,%rax
  40139a:	00 00 
  40139c:	48 89 44 24 28       	mov    %rax,0x28(%rsp)
  4013a1:	31 c0                	xor    %eax,%eax
  4013a3:	eb 10                	jmp    4013b5 <scramble+0x26>
  4013a5:	69 d0 0e d5 00 00    	imul   $0xd50e,%eax,%edx
  4013ab:	01 fa                	add    %edi,%edx
  4013ad:	89 c1                	mov    %eax,%ecx
  4013af:	89 14 8c             	mov    %edx,(%rsp,%rcx,4)
  4013b2:	83 c0 01             	add    $0x1,%eax
  4013b5:	83 f8 09             	cmp    $0x9,%eax
  4013b8:	76 eb                	jbe    4013a5 <scramble+0x16>
  4013ba:	8b 44 24 20          	mov    0x20(%rsp),%eax
  4013be:	69 c0 11 aa 00 00    	imul   $0xaa11,%eax,%eax
  4013c4:	89 44 24 20          	mov    %eax,0x20(%rsp)
  4013c8:	8b 44 24 18          	mov    0x18(%rsp),%eax
  4013cc:	69 c0 c9 29 00 00    	imul   $0x29c9,%eax,%eax
  4013d2:	89 44 24 18          	mov    %eax,0x18(%rsp)
  4013d6:	8b 44 24 20          	mov    0x20(%rsp),%eax
  4013da:	69 c0 f0 ab 00 00    	imul   $0xabf0,%eax,%eax
  4013e0:	89 44 24 20          	mov    %eax,0x20(%rsp)
  4013e4:	8b 44 24 24          	mov    0x24(%rsp),%eax
  4013e8:	69 c0 0c 14 00 00    	imul   $0x140c,%eax,%eax
  4013ee:	89 44 24 24          	mov    %eax,0x24(%rsp)
  4013f2:	8b 44 24 14          	mov    0x14(%rsp),%eax
  4013f6:	69 c0 72 2b 00 00    	imul   $0x2b72,%eax,%eax
  4013fc:	89 44 24 14          	mov    %eax,0x14(%rsp)
  401400:	8b 44 24 0c          	mov    0xc(%rsp),%eax
  401404:	69 c0 0d 87 00 00    	imul   $0x870d,%eax,%eax
  40140a:	89 44 24 0c          	mov    %eax,0xc(%rsp)
  40140e:	8b 44 24 14          	mov    0x14(%rsp),%eax
  401412:	69 c0 01 34 00 00    	imul   $0x3401,%eax,%eax
  401418:	89 44 24 14          	mov    %eax,0x14(%rsp)
  40141c:	8b 44 24 10          	mov    0x10(%rsp),%eax
  401420:	69 c0 3f b5 00 00    	imul   $0xb53f,%eax,%eax
  401426:	89 44 24 10          	mov    %eax,0x10(%rsp)
  40142a:	8b 44 24 24          	mov    0x24(%rsp),%eax
  40142e:	69 c0 59 5b 00 00    	imul   $0x5b59,%eax,%eax
  401434:	89 44 24 24          	mov    %eax,0x24(%rsp)
  401438:	8b 44 24 08          	mov    0x8(%rsp),%eax
  40143c:	69 c0 ba 87 00 00    	imul   $0x87ba,%eax,%eax
  401442:	89 44 24 08          	mov    %eax,0x8(%rsp)
  401446:	8b 44 24 0c          	mov    0xc(%rsp),%eax
  40144a:	69 c0 0f 7b 00 00    	imul   $0x7b0f,%eax,%eax
  401450:	89 44 24 0c          	mov    %eax,0xc(%rsp)
  401454:	8b 44 24 18          	mov    0x18(%rsp),%eax
  401458:	69 c0 85 c5 00 00    	imul   $0xc585,%eax,%eax
  40145e:	89 44 24 18          	mov    %eax,0x18(%rsp)
  401462:	8b 44 24 14          	mov    0x14(%rsp),%eax
  401466:	69 c0 d9 5c 00 00    	imul   $0x5cd9,%eax,%eax
  40146c:	89 44 24 14          	mov    %eax,0x14(%rsp)
  401470:	8b 44 24 10          	mov    0x10(%rsp),%eax
  401474:	69 c0 5b 0e 00 00    	imul   $0xe5b,%eax,%eax
  40147a:	89 44 24 10          	mov    %eax,0x10(%rsp)
  40147e:	8b 44 24 14          	mov    0x14(%rsp),%eax
  401482:	69 c0 a6 36 00 00    	imul   $0x36a6,%eax,%eax
  401488:	89 44 24 14          	mov    %eax,0x14(%rsp)
  40148c:	8b 44 24 04          	mov    0x4(%rsp),%eax
  401490:	89 c2                	mov    %eax,%edx
  401492:	c1 e2 0b             	shl    $0xb,%edx
  401495:	c1 e0 0f             	shl    $0xf,%eax
  401498:	29 d0                	sub    %edx,%eax
  40149a:	89 44 24 04          	mov    %eax,0x4(%rsp)
  40149e:	8b 44 24 20          	mov    0x20(%rsp),%eax
  4014a2:	69 c0 7d 8a 00 00    	imul   $0x8a7d,%eax,%eax
  4014a8:	89 44 24 20          	mov    %eax,0x20(%rsp)
  4014ac:	8b 44 24 14          	mov    0x14(%rsp),%eax
  4014b0:	69 c0 4b 31 00 00    	imul   $0x314b,%eax,%eax
  4014b6:	89 44 24 14          	mov    %eax,0x14(%rsp)
  4014ba:	8b 44 24 08          	mov    0x8(%rsp),%eax
  4014be:	69 c0 28 e7 00 00    	imul   $0xe728,%eax,%eax
  4014c4:	89 44 24 08          	mov    %eax,0x8(%rsp)
  4014c8:	8b 44 24 18          	mov    0x18(%rsp),%eax
  4014cc:	69 c0 be f5 00 00    	imul   $0xf5be,%eax,%eax
  4014d2:	89 44 24 18          	mov    %eax,0x18(%rsp)
  4014d6:	8b 04 24             	mov    (%rsp),%eax
  4014d9:	69 c0 77 48 00 00    	imul   $0x4877,%eax,%eax
  4014df:	89 04 24             	mov    %eax,(%rsp)
  4014e2:	8b 44 24 20          	mov    0x20(%rsp),%eax
  4014e6:	69 c0 66 30 00 00    	imul   $0x3066,%eax,%eax
  4014ec:	89 44 24 20          	mov    %eax,0x20(%rsp)
  4014f0:	8b 44 24 0c          	mov    0xc(%rsp),%eax
  4014f4:	69 c0 7b 7d 00 00    	imul   $0x7d7b,%eax,%eax
  4014fa:	89 44 24 0c          	mov    %eax,0xc(%rsp)
  4014fe:	8b 04 24             	mov    (%rsp),%eax
  401501:	69 c0 90 02 00 00    	imul   $0x290,%eax,%eax
  401507:	89 04 24             	mov    %eax,(%rsp)
  40150a:	8b 44 24 18          	mov    0x18(%rsp),%eax
  40150e:	69 c0 bf 8a 00 00    	imul   $0x8abf,%eax,%eax
  401514:	89 44 24 18          	mov    %eax,0x18(%rsp)
  401518:	8b 44 24 18          	mov    0x18(%rsp),%eax
  40151c:	69 c0 b7 8b 00 00    	imul   $0x8bb7,%eax,%eax
  401522:	89 44 24 18          	mov    %eax,0x18(%rsp)
  401526:	8b 44 24 08          	mov    0x8(%rsp),%eax
  40152a:	69 c0 ba 97 00 00    	imul   $0x97ba,%eax,%eax
  401530:	89 44 24 08          	mov    %eax,0x8(%rsp)
  401534:	8b 44 24 04          	mov    0x4(%rsp),%eax
  401538:	69 c0 65 bb 00 00    	imul   $0xbb65,%eax,%eax
  40153e:	89 44 24 04          	mov    %eax,0x4(%rsp)
  401542:	8b 44 24 08          	mov    0x8(%rsp),%eax
  401546:	69 c0 28 0a 00 00    	imul   $0xa28,%eax,%eax
  40154c:	89 44 24 08          	mov    %eax,0x8(%rsp)
  401550:	8b 44 24 08          	mov    0x8(%rsp),%eax
  401554:	69 c0 85 97 00 00    	imul   $0x9785,%eax,%eax
  40155a:	89 44 24 08          	mov    %eax,0x8(%rsp)
  40155e:	8b 44 24 24          	mov    0x24(%rsp),%eax
  401562:	69 c0 87 31 00 00    	imul   $0x3187,%eax,%eax
  401568:	89 44 24 24          	mov    %eax,0x24(%rsp)
  40156c:	8b 04 24             	mov    (%rsp),%eax
  40156f:	69 c0 85 21 00 00    	imul   $0x2185,%eax,%eax
  401575:	89 04 24             	mov    %eax,(%rsp)
  401578:	8b 44 24 10          	mov    0x10(%rsp),%eax
  40157c:	69 c0 4f b1 00 00    	imul   $0xb14f,%eax,%eax
  401582:	89 44 24 10          	mov    %eax,0x10(%rsp)
  401586:	8b 44 24 14          	mov    0x14(%rsp),%eax
  40158a:	69 c0 71 f2 00 00    	imul   $0xf271,%eax,%eax
  401590:	89 44 24 14          	mov    %eax,0x14(%rsp)
  401594:	8b 44 24 24          	mov    0x24(%rsp),%eax
  401598:	69 c0 28 98 00 00    	imul   $0x9828,%eax,%eax
  40159e:	89 44 24 24          	mov    %eax,0x24(%rsp)
  4015a2:	8b 44 24 14          	mov    0x14(%rsp),%eax
  4015a6:	69 c0 12 ab 00 00    	imul   $0xab12,%eax,%eax
  4015ac:	89 44 24 14          	mov    %eax,0x14(%rsp)
  4015b0:	8b 44 24 18          	mov    0x18(%rsp),%eax
  4015b4:	69 c0 fb 64 00 00    	imul   $0x64fb,%eax,%eax
  4015ba:	89 44 24 18          	mov    %eax,0x18(%rsp)
  4015be:	8b 44 24 1c          	mov    0x1c(%rsp),%eax
  4015c2:	69 c0 17 5d 00 00    	imul   $0x5d17,%eax,%eax
  4015c8:	89 44 24 1c          	mov    %eax,0x1c(%rsp)
  4015cc:	8b 44 24 1c          	mov    0x1c(%rsp),%eax
  4015d0:	69 c0 1d c1 00 00    	imul   $0xc11d,%eax,%eax
  4015d6:	89 44 24 1c          	mov    %eax,0x1c(%rsp)
  4015da:	8b 44 24 18          	mov    0x18(%rsp),%eax
  4015de:	69 c0 4b bb 00 00    	imul   $0xbb4b,%eax,%eax
  4015e4:	89 44 24 18          	mov    %eax,0x18(%rsp)
  4015e8:	8b 44 24 10          	mov    0x10(%rsp),%eax
  4015ec:	69 c0 f2 e9 00 00    	imul   $0xe9f2,%eax,%eax
  4015f2:	89 44 24 10          	mov    %eax,0x10(%rsp)
  4015f6:	8b 44 24 18          	mov    0x18(%rsp),%eax
  4015fa:	69 c0 ab 51 00 00    	imul   $0x51ab,%eax,%eax
  401600:	89 44 24 18          	mov    %eax,0x18(%rsp)
  401604:	8b 04 24             	mov    (%rsp),%eax
  401607:	69 c0 3f 98 00 00    	imul   $0x983f,%eax,%eax
  40160d:	89 04 24             	mov    %eax,(%rsp)
  401610:	8b 44 24 1c          	mov    0x1c(%rsp),%eax
  401614:	69 c0 3f 76 00 00    	imul   $0x763f,%eax,%eax
  40161a:	89 44 24 1c          	mov    %eax,0x1c(%rsp)
  40161e:	8b 44 24 18          	mov    0x18(%rsp),%eax
  401622:	69 c0 d0 d6 00 00    	imul   $0xd6d0,%eax,%eax
  401628:	89 44 24 18          	mov    %eax,0x18(%rsp)
  40162c:	8b 44 24 24          	mov    0x24(%rsp),%eax
  401630:	69 c0 35 e3 00 00    	imul   $0xe335,%eax,%eax
  401636:	89 44 24 24          	mov    %eax,0x24(%rsp)
  40163a:	8b 44 24 10          	mov    0x10(%rsp),%eax
  40163e:	69 c0 49 1d 00 00    	imul   $0x1d49,%eax,%eax
  401644:	89 44 24 10          	mov    %eax,0x10(%rsp)
  401648:	8b 44 24 14          	mov    0x14(%rsp),%eax
  40164c:	69 c0 5b c4 00 00    	imul   $0xc45b,%eax,%eax
  401652:	89 44 24 14          	mov    %eax,0x14(%rsp)
  401656:	8b 44 24 18          	mov    0x18(%rsp),%eax
  40165a:	69 c0 8a 57 00 00    	imul   $0x578a,%eax,%eax
  401660:	89 44 24 18          	mov    %eax,0x18(%rsp)
  401664:	8b 44 24 24          	mov    0x24(%rsp),%eax
  401668:	69 c0 10 67 00 00    	imul   $0x6710,%eax,%eax
  40166e:	89 44 24 24          	mov    %eax,0x24(%rsp)
  401672:	8b 44 24 10          	mov    0x10(%rsp),%eax
  401676:	69 c0 fb 9e 00 00    	imul   $0x9efb,%eax,%eax
  40167c:	89 44 24 10          	mov    %eax,0x10(%rsp)
  401680:	8b 44 24 24          	mov    0x24(%rsp),%eax
  401684:	69 c0 52 d0 00 00    	imul   $0xd052,%eax,%eax
  40168a:	89 44 24 24          	mov    %eax,0x24(%rsp)
  40168e:	8b 04 24             	mov    (%rsp),%eax
  401691:	69 c0 9a ed 00 00    	imul   $0xed9a,%eax,%eax
  401697:	89 04 24             	mov    %eax,(%rsp)
  40169a:	8b 44 24 08          	mov    0x8(%rsp),%eax
  40169e:	69 c0 6e e6 00 00    	imul   $0xe66e,%eax,%eax
  4016a4:	89 44 24 08          	mov    %eax,0x8(%rsp)
  4016a8:	8b 44 24 1c          	mov    0x1c(%rsp),%eax
  4016ac:	69 c0 11 8d 00 00    	imul   $0x8d11,%eax,%eax
  4016b2:	89 44 24 1c          	mov    %eax,0x1c(%rsp)
  4016b6:	8b 44 24 14          	mov    0x14(%rsp),%eax
  4016ba:	69 c0 94 fa 00 00    	imul   $0xfa94,%eax,%eax
  4016c0:	89 44 24 14          	mov    %eax,0x14(%rsp)
  4016c4:	8b 44 24 0c          	mov    0xc(%rsp),%eax
  4016c8:	69 c0 bc e8 00 00    	imul   $0xe8bc,%eax,%eax
  4016ce:	89 44 24 0c          	mov    %eax,0xc(%rsp)
  4016d2:	8b 44 24 04          	mov    0x4(%rsp),%eax
  4016d6:	69 c0 af f8 00 00    	imul   $0xf8af,%eax,%eax
  4016dc:	89 44 24 04          	mov    %eax,0x4(%rsp)
  4016e0:	8b 44 24 08          	mov    0x8(%rsp),%eax
  4016e4:	69 c0 4f 59 00 00    	imul   $0x594f,%eax,%eax
  4016ea:	89 44 24 08          	mov    %eax,0x8(%rsp)
  4016ee:	8b 44 24 1c          	mov    0x1c(%rsp),%eax
  4016f2:	69 c0 62 23 00 00    	imul   $0x2362,%eax,%eax
  4016f8:	89 44 24 1c          	mov    %eax,0x1c(%rsp)
  4016fc:	8b 44 24 1c          	mov    0x1c(%rsp),%eax
  401700:	69 c0 b2 7c 00 00    	imul   $0x7cb2,%eax,%eax
  401706:	89 44 24 1c          	mov    %eax,0x1c(%rsp)
  40170a:	8b 44 24 18          	mov    0x18(%rsp),%eax
  40170e:	69 c0 76 38 00 00    	imul   $0x3876,%eax,%eax
  401714:	89 44 24 18          	mov    %eax,0x18(%rsp)
  401718:	8b 44 24 24          	mov    0x24(%rsp),%eax
  40171c:	69 c0 51 0b 00 00    	imul   $0xb51,%eax,%eax
  401722:	89 44 24 24          	mov    %eax,0x24(%rsp)
  401726:	8b 44 24 0c          	mov    0xc(%rsp),%eax
  40172a:	69 c0 95 68 00 00    	imul   $0x6895,%eax,%eax
  401730:	89 44 24 0c          	mov    %eax,0xc(%rsp)
  401734:	8b 44 24 14          	mov    0x14(%rsp),%eax
  401738:	69 c0 9d b3 00 00    	imul   $0xb39d,%eax,%eax
  40173e:	89 44 24 14          	mov    %eax,0x14(%rsp)
  401742:	8b 44 24 14          	mov    0x14(%rsp),%eax
  401746:	69 c0 8e 52 00 00    	imul   $0x528e,%eax,%eax
  40174c:	89 44 24 14          	mov    %eax,0x14(%rsp)
  401750:	8b 44 24 04          	mov    0x4(%rsp),%eax
  401754:	69 c0 c8 e1 00 00    	imul   $0xe1c8,%eax,%eax
  40175a:	89 44 24 04          	mov    %eax,0x4(%rsp)
  40175e:	8b 44 24 10          	mov    0x10(%rsp),%eax
  401762:	69 c0 90 56 00 00    	imul   $0x5690,%eax,%eax
  401768:	89 44 24 10          	mov    %eax,0x10(%rsp)
  40176c:	8b 44 24 10          	mov    0x10(%rsp),%eax
  401770:	69 c0 4b 50 00 00    	imul   $0x504b,%eax,%eax
  401776:	89 44 24 10          	mov    %eax,0x10(%rsp)
  40177a:	8b 44 24 08          	mov    0x8(%rsp),%eax
  40177e:	69 c0 1a 7e 00 00    	imul   $0x7e1a,%eax,%eax
  401784:	89 44 24 08          	mov    %eax,0x8(%rsp)
  401788:	8b 44 24 1c          	mov    0x1c(%rsp),%eax
  40178c:	69 c0 b7 de 00 00    	imul   $0xdeb7,%eax,%eax
  401792:	89 44 24 1c          	mov    %eax,0x1c(%rsp)
  401796:	8b 44 24 14          	mov    0x14(%rsp),%eax
  40179a:	69 c0 60 54 00 00    	imul   $0x5460,%eax,%eax
  4017a0:	89 44 24 14          	mov    %eax,0x14(%rsp)
  4017a4:	8b 44 24 0c          	mov    0xc(%rsp),%eax
  4017a8:	69 c0 ee c4 00 00    	imul   $0xc4ee,%eax,%eax
  4017ae:	89 44 24 0c          	mov    %eax,0xc(%rsp)
  4017b2:	8b 44 24 20          	mov    0x20(%rsp),%eax
  4017b6:	69 c0 6e 48 00 00    	imul   $0x486e,%eax,%eax
  4017bc:	89 44 24 20          	mov    %eax,0x20(%rsp)
  4017c0:	8b 44 24 18          	mov    0x18(%rsp),%eax
  4017c4:	69 c0 fe bb 00 00    	imul   $0xbbfe,%eax,%eax
  4017ca:	89 44 24 18          	mov    %eax,0x18(%rsp)
  4017ce:	8b 44 24 18          	mov    0x18(%rsp),%eax
  4017d2:	69 c0 5d 4e 00 00    	imul   $0x4e5d,%eax,%eax
  4017d8:	89 44 24 18          	mov    %eax,0x18(%rsp)
  4017dc:	8b 44 24 18          	mov    0x18(%rsp),%eax
  4017e0:	69 c0 67 72 00 00    	imul   $0x7267,%eax,%eax
  4017e6:	89 44 24 18          	mov    %eax,0x18(%rsp)
  4017ea:	8b 44 24 20          	mov    0x20(%rsp),%eax
  4017ee:	69 c0 ac d2 00 00    	imul   $0xd2ac,%eax,%eax
  4017f4:	89 44 24 20          	mov    %eax,0x20(%rsp)
  4017f8:	8b 44 24 1c          	mov    0x1c(%rsp),%eax
  4017fc:	69 c0 a5 83 00 00    	imul   $0x83a5,%eax,%eax
  401802:	89 44 24 1c          	mov    %eax,0x1c(%rsp)
  401806:	8b 44 24 14          	mov    0x14(%rsp),%eax
  40180a:	69 c0 94 e0 00 00    	imul   $0xe094,%eax,%eax
  401810:	89 44 24 14          	mov    %eax,0x14(%rsp)
  401814:	8b 44 24 20          	mov    0x20(%rsp),%eax
  401818:	69 c0 e7 0a 00 00    	imul   $0xae7,%eax,%eax
  40181e:	89 44 24 20          	mov    %eax,0x20(%rsp)
  401822:	8b 44 24 1c          	mov    0x1c(%rsp),%eax
  401826:	69 c0 dc 89 00 00    	imul   $0x89dc,%eax,%eax
  40182c:	89 44 24 1c          	mov    %eax,0x1c(%rsp)
  401830:	8b 44 24 18          	mov    0x18(%rsp),%eax
  401834:	69 c0 03 56 00 00    	imul   $0x5603,%eax,%eax
  40183a:	89 44 24 18          	mov    %eax,0x18(%rsp)
  40183e:	8b 44 24 10          	mov    0x10(%rsp),%eax
  401842:	69 c0 11 bc 00 00    	imul   $0xbc11,%eax,%eax
  401848:	89 44 24 10          	mov    %eax,0x10(%rsp)
  40184c:	8b 44 24 08          	mov    0x8(%rsp),%eax
  401850:	69 c0 6a 1d 00 00    	imul   $0x1d6a,%eax,%eax
  401856:	89 44 24 08          	mov    %eax,0x8(%rsp)
  40185a:	8b 44 24 0c          	mov    0xc(%rsp),%eax
  40185e:	69 c0 ab 83 00 00    	imul   $0x83ab,%eax,%eax
  401864:	89 44 24 0c          	mov    %eax,0xc(%rsp)
  401868:	8b 44 24 1c          	mov    0x1c(%rsp),%eax
  40186c:	69 c0 db b2 00 00    	imul   $0xb2db,%eax,%eax
  401872:	89 44 24 1c          	mov    %eax,0x1c(%rsp)
  401876:	8b 44 24 0c          	mov    0xc(%rsp),%eax
  40187a:	69 c0 95 c3 00 00    	imul   $0xc395,%eax,%eax
  401880:	89 44 24 0c          	mov    %eax,0xc(%rsp)
  401884:	8b 44 24 24          	mov    0x24(%rsp),%eax
  401888:	69 c0 1a 25 00 00    	imul   $0x251a,%eax,%eax
  40188e:	89 44 24 24          	mov    %eax,0x24(%rsp)
  401892:	ba 00 00 00 00       	mov    $0x0,%edx
  401897:	b8 00 00 00 00       	mov    $0x0,%eax
  40189c:	eb 0a                	jmp    4018a8 <scramble+0x519>
  40189e:	89 d1                	mov    %edx,%ecx
  4018a0:	8b 0c 8c             	mov    (%rsp,%rcx,4),%ecx
  4018a3:	01 c8                	add    %ecx,%eax
  4018a5:	83 c2 01             	add    $0x1,%edx
  4018a8:	83 fa 09             	cmp    $0x9,%edx
  4018ab:	76 f1                	jbe    40189e <scramble+0x50f>
  4018ad:	48 8b 74 24 28       	mov    0x28(%rsp),%rsi
  4018b2:	64 48 33 34 25 28 00 	xor    %fs:0x28,%rsi
  4018b9:	00 00 
  4018bb:	74 05                	je     4018c2 <scramble+0x533>
  4018bd:	e8 2e f4 ff ff       	callq  400cf0 <__stack_chk_fail@plt>
  4018c2:	48 83 c4 38          	add    $0x38,%rsp
  4018c6:	c3                   	retq   

00000000004018c7 <getbuf>:
  4018c7:	48 83 ec 38          	sub    $0x38,%rsp
  4018cb:	48 89 e7             	mov    %rsp,%rdi
  4018ce:	e8 a3 03 00 00       	callq  401c76 <Gets>
  4018d3:	b8 01 00 00 00       	mov    $0x1,%eax
  4018d8:	48 83 c4 38          	add    $0x38,%rsp
  4018dc:	c3                   	retq   

00000000004018dd <touch1>:
  4018dd:	48 83 ec 08          	sub    $0x8,%rsp
  4018e1:	c7 05 31 3c 20 00 01 	movl   $0x1,0x203c31(%rip)        # 60551c <vlevel>
  4018e8:	00 00 00 
  4018eb:	bf b4 34 40 00       	mov    $0x4034b4,%edi
  4018f0:	e8 db f3 ff ff       	callq  400cd0 <puts@plt>
  4018f5:	bf 01 00 00 00       	mov    $0x1,%edi
  4018fa:	e8 bc 05 00 00       	callq  401ebb <validate>
  4018ff:	bf 00 00 00 00       	mov    $0x0,%edi
  401904:	e8 47 f5 ff ff       	callq  400e50 <exit@plt>

0000000000401909 <touch2>:
  401909:	48 83 ec 08          	sub    $0x8,%rsp
  40190d:	89 fa                	mov    %edi,%edx
  40190f:	c7 05 03 3c 20 00 02 	movl   $0x2,0x203c03(%rip)        # 60551c <vlevel>
  401916:	00 00 00 
  401919:	39 3d 05 3c 20 00    	cmp    %edi,0x203c05(%rip)        # 605524 <cookie>
  40191f:	75 20                	jne    401941 <touch2+0x38>
  401921:	be d8 34 40 00       	mov    $0x4034d8,%esi
  401926:	bf 01 00 00 00       	mov    $0x1,%edi
  40192b:	b8 00 00 00 00       	mov    $0x0,%eax
  401930:	e8 cb f4 ff ff       	callq  400e00 <__printf_chk@plt>
  401935:	bf 02 00 00 00       	mov    $0x2,%edi
  40193a:	e8 7c 05 00 00       	callq  401ebb <validate>
  40193f:	eb 1e                	jmp    40195f <touch2+0x56>
  401941:	be 00 35 40 00       	mov    $0x403500,%esi
  401946:	bf 01 00 00 00       	mov    $0x1,%edi
  40194b:	b8 00 00 00 00       	mov    $0x0,%eax
  401950:	e8 ab f4 ff ff       	callq  400e00 <__printf_chk@plt>
  401955:	bf 02 00 00 00       	mov    $0x2,%edi
  40195a:	e8 1e 06 00 00       	callq  401f7d <fail>
  40195f:	bf 00 00 00 00       	mov    $0x0,%edi
  401964:	e8 e7 f4 ff ff       	callq  400e50 <exit@plt>

0000000000401969 <hexmatch>:
  401969:	41 54                	push   %r12
  40196b:	55                   	push   %rbp
  40196c:	53                   	push   %rbx
  40196d:	48 83 c4 80          	add    $0xffffffffffffff80,%rsp
  401971:	89 fd                	mov    %edi,%ebp
  401973:	48 89 f3             	mov    %rsi,%rbx
  401976:	64 48 8b 04 25 28 00 	mov    %fs:0x28,%rax
  40197d:	00 00 
  40197f:	48 89 44 24 78       	mov    %rax,0x78(%rsp)
  401984:	31 c0                	xor    %eax,%eax
  401986:	e8 35 f4 ff ff       	callq  400dc0 <random@plt>
  40198b:	48 89 c1             	mov    %rax,%rcx
  40198e:	48 ba 0b d7 a3 70 3d 	movabs $0xa3d70a3d70a3d70b,%rdx
  401995:	0a d7 a3 
  401998:	48 f7 ea             	imul   %rdx
  40199b:	48 01 ca             	add    %rcx,%rdx
  40199e:	48 c1 fa 06          	sar    $0x6,%rdx
  4019a2:	48 89 c8             	mov    %rcx,%rax
  4019a5:	48 c1 f8 3f          	sar    $0x3f,%rax
  4019a9:	48 29 c2             	sub    %rax,%rdx
  4019ac:	48 8d 04 92          	lea    (%rdx,%rdx,4),%rax
  4019b0:	48 8d 14 80          	lea    (%rax,%rax,4),%rdx
  4019b4:	48 8d 04 95 00 00 00 	lea    0x0(,%rdx,4),%rax
  4019bb:	00 
  4019bc:	48 29 c1             	sub    %rax,%rcx
  4019bf:	4c 8d 24 0c          	lea    (%rsp,%rcx,1),%r12
  4019c3:	41 89 e8             	mov    %ebp,%r8d
  4019c6:	b9 d1 34 40 00       	mov    $0x4034d1,%ecx
  4019cb:	48 c7 c2 ff ff ff ff 	mov    $0xffffffffffffffff,%rdx
  4019d2:	be 01 00 00 00       	mov    $0x1,%esi
  4019d7:	4c 89 e7             	mov    %r12,%rdi
  4019da:	b8 00 00 00 00       	mov    $0x0,%eax
  4019df:	e8 9c f4 ff ff       	callq  400e80 <__sprintf_chk@plt>
  4019e4:	ba 09 00 00 00       	mov    $0x9,%edx
  4019e9:	4c 89 e6             	mov    %r12,%rsi
  4019ec:	48 89 df             	mov    %rbx,%rdi
  4019ef:	e8 bc f2 ff ff       	callq  400cb0 <strncmp@plt>
  4019f4:	85 c0                	test   %eax,%eax
  4019f6:	0f 94 c0             	sete   %al
  4019f9:	48 8b 5c 24 78       	mov    0x78(%rsp),%rbx
  4019fe:	64 48 33 1c 25 28 00 	xor    %fs:0x28,%rbx
  401a05:	00 00 
  401a07:	74 05                	je     401a0e <hexmatch+0xa5>
  401a09:	e8 e2 f2 ff ff       	callq  400cf0 <__stack_chk_fail@plt>
  401a0e:	0f b6 c0             	movzbl %al,%eax
  401a11:	48 83 ec 80          	sub    $0xffffffffffffff80,%rsp
  401a15:	5b                   	pop    %rbx
  401a16:	5d                   	pop    %rbp
  401a17:	41 5c                	pop    %r12
  401a19:	c3                   	retq   

0000000000401a1a <touch3>:
  401a1a:	53                   	push   %rbx
  401a1b:	48 89 fb             	mov    %rdi,%rbx
  401a1e:	c7 05 f4 3a 20 00 03 	movl   $0x3,0x203af4(%rip)        # 60551c <vlevel>
  401a25:	00 00 00 
  401a28:	48 89 fe             	mov    %rdi,%rsi
  401a2b:	8b 3d f3 3a 20 00    	mov    0x203af3(%rip),%edi        # 605524 <cookie>
  401a31:	e8 33 ff ff ff       	callq  401969 <hexmatch>
  401a36:	85 c0                	test   %eax,%eax
  401a38:	74 23                	je     401a5d <touch3+0x43>
  401a3a:	48 89 da             	mov    %rbx,%rdx
  401a3d:	be 28 35 40 00       	mov    $0x403528,%esi
  401a42:	bf 01 00 00 00       	mov    $0x1,%edi
  401a47:	b8 00 00 00 00       	mov    $0x0,%eax
  401a4c:	e8 af f3 ff ff       	callq  400e00 <__printf_chk@plt>
  401a51:	bf 03 00 00 00       	mov    $0x3,%edi
  401a56:	e8 60 04 00 00       	callq  401ebb <validate>
  401a5b:	eb 21                	jmp    401a7e <touch3+0x64>
  401a5d:	48 89 da             	mov    %rbx,%rdx
  401a60:	be 50 35 40 00       	mov    $0x403550,%esi
  401a65:	bf 01 00 00 00       	mov    $0x1,%edi
  401a6a:	b8 00 00 00 00       	mov    $0x0,%eax
  401a6f:	e8 8c f3 ff ff       	callq  400e00 <__printf_chk@plt>
  401a74:	bf 03 00 00 00       	mov    $0x3,%edi
  401a79:	e8 ff 04 00 00       	callq  401f7d <fail>
  401a7e:	bf 00 00 00 00       	mov    $0x0,%edi
  401a83:	e8 c8 f3 ff ff       	callq  400e50 <exit@plt>

0000000000401a88 <test>:
  401a88:	48 83 ec 08          	sub    $0x8,%rsp
  401a8c:	b8 00 00 00 00       	mov    $0x0,%eax
  401a91:	e8 31 fe ff ff       	callq  4018c7 <getbuf>
  401a96:	89 c2                	mov    %eax,%edx
  401a98:	be 78 35 40 00       	mov    $0x403578,%esi
  401a9d:	bf 01 00 00 00       	mov    $0x1,%edi
  401aa2:	b8 00 00 00 00       	mov    $0x0,%eax
  401aa7:	e8 54 f3 ff ff       	callq  400e00 <__printf_chk@plt>
  401aac:	48 83 c4 08          	add    $0x8,%rsp
  401ab0:	c3                   	retq   

0000000000401ab1 <start_farm>:
  401ab1:	b8 01 00 00 00       	mov    $0x1,%eax
  401ab6:	c3                   	retq   

0000000000401ab7 <getval_447>:
  401ab7:	b8 48 89 c7 90       	mov    $0x90c78948,%eax
  401abc:	c3                   	retq   

0000000000401abd <addval_180>:
  401abd:	8d 87 9d 9e 58 90    	lea    -0x6fa76163(%rdi),%eax
  401ac3:	c3                   	retq   

0000000000401ac4 <setval_308>:
  401ac4:	c7 07 50 90 90 90    	movl   $0x90909050,(%rdi)
  401aca:	c3                   	retq   

0000000000401acb <setval_320>:
  401acb:	c7 07 48 88 c7 c3    	movl   $0xc3c78848,(%rdi)
  401ad1:	c3                   	retq   

0000000000401ad2 <getval_332>:
  401ad2:	b8 ec 58 90 90       	mov    $0x909058ec,%eax
  401ad7:	c3                   	retq   

0000000000401ad8 <setval_331>:
  401ad8:	c7 07 08 78 90 90    	movl   $0x90907808,(%rdi)
  401ade:	c3                   	retq   

0000000000401adf <addval_196>:
  401adf:	8d 87 48 89 c7 90    	lea    -0x6f3876b8(%rdi),%eax
  401ae5:	c3                   	retq   

0000000000401ae6 <addval_264>:
  401ae6:	8d 87 a9 68 89 c7    	lea    -0x38769757(%rdi),%eax
  401aec:	c3                   	retq   

0000000000401aed <mid_farm>:
  401aed:	b8 01 00 00 00       	mov    $0x1,%eax
  401af2:	c3                   	retq   

0000000000401af3 <add_xy>:
  401af3:	48 8d 04 37          	lea    (%rdi,%rsi,1),%rax
  401af7:	c3                   	retq   

0000000000401af8 <addval_456>:
  401af8:	8d 87 89 c1 38 c0    	lea    -0x3fc73e77(%rdi),%eax
  401afe:	c3                   	retq   

0000000000401aff <setval_405>:
  401aff:	c7 07 d8 48 89 e0    	movl   $0xe08948d8,(%rdi)
  401b05:	c3                   	retq   

0000000000401b06 <addval_426>:
  401b06:	8d 87 89 d6 20 db    	lea    -0x24df2977(%rdi),%eax
  401b0c:	c3                   	retq   

0000000000401b0d <getval_268>:
  401b0d:	b8 89 ca 84 db       	mov    $0xdb84ca89,%eax
  401b12:	c3                   	retq   

0000000000401b13 <getval_495>:
  401b13:	b8 89 c1 00 c9       	mov    $0xc900c189,%eax
  401b18:	c3                   	retq   

0000000000401b19 <addval_162>:
  401b19:	8d 87 89 ca 38 c0    	lea    -0x3fc73577(%rdi),%eax
  401b1f:	c3                   	retq   

0000000000401b20 <addval_315>:
  401b20:	8d 87 89 ca 94 d2    	lea    -0x2d6b3577(%rdi),%eax
  401b26:	c3                   	retq   

0000000000401b27 <setval_304>:
  401b27:	c7 07 9a 81 d6 90    	movl   $0x90d6819a,(%rdi)
  401b2d:	c3                   	retq   

0000000000401b2e <setval_411>:
  401b2e:	c7 07 48 89 e0 92    	movl   $0x92e08948,(%rdi)
  401b34:	c3                   	retq   

0000000000401b35 <addval_167>:
  401b35:	8d 87 89 d6 90 c2    	lea    -0x3d6f2977(%rdi),%eax
  401b3b:	c3                   	retq   

0000000000401b3c <getval_333>:
  401b3c:	b8 48 89 e0 92       	mov    $0x92e08948,%eax
  401b41:	c3                   	retq   

0000000000401b42 <addval_229>:
  401b42:	8d 87 89 d6 28 db    	lea    -0x24d72977(%rdi),%eax
  401b48:	c3                   	retq   

0000000000401b49 <getval_140>:
  401b49:	b8 88 d6 38 db       	mov    $0xdb38d688,%eax
  401b4e:	c3                   	retq   

0000000000401b4f <setval_475>:
  401b4f:	c7 07 48 89 e0 c3    	movl   $0xc3e08948,(%rdi)
  401b55:	c3                   	retq   

0000000000401b56 <setval_100>:
  401b56:	c7 07 c9 c1 84 db    	movl   $0xdb84c1c9,(%rdi)
  401b5c:	c3                   	retq   

0000000000401b5d <setval_446>:
  401b5d:	c7 07 8d ca 84 c9    	movl   $0xc984ca8d,(%rdi)
  401b63:	c3                   	retq   

0000000000401b64 <addval_141>:
  401b64:	8d 87 88 ca c3 0c    	lea    0xcc3ca88(%rdi),%eax
  401b6a:	c3                   	retq   

0000000000401b6b <getval_253>:
  401b6b:	b8 48 a9 e0 90       	mov    $0x90e0a948,%eax
  401b70:	c3                   	retq   

0000000000401b71 <addval_497>:
  401b71:	8d 87 09 c1 84 d2    	lea    -0x2d7b3ef7(%rdi),%eax
  401b77:	c3                   	retq   

0000000000401b78 <getval_245>:
  401b78:	b8 89 c1 18 c9       	mov    $0xc918c189,%eax
  401b7d:	c3                   	retq   

0000000000401b7e <setval_416>:
  401b7e:	c7 07 48 a9 e0 90    	movl   $0x90e0a948,(%rdi)
  401b84:	c3                   	retq   

0000000000401b85 <addval_280>:
  401b85:	8d 87 89 d6 84 db    	lea    -0x247b2977(%rdi),%eax
  401b8b:	c3                   	retq   

0000000000401b8c <addval_278>:
  401b8c:	8d 87 26 89 d6 92    	lea    -0x6d2976da(%rdi),%eax
  401b92:	c3                   	retq   

0000000000401b93 <addval_372>:
  401b93:	8d 87 48 89 e0 c1    	lea    -0x3e1f76b8(%rdi),%eax
  401b99:	c3                   	retq   

0000000000401b9a <addval_382>:
  401b9a:	8d 87 89 ca 90 c1    	lea    -0x3e6f3577(%rdi),%eax
  401ba0:	c3                   	retq   

0000000000401ba1 <addval_130>:
  401ba1:	8d 87 81 d6 c3 85    	lea    -0x7a3c297f(%rdi),%eax
  401ba7:	c3                   	retq   

0000000000401ba8 <getval_218>:
  401ba8:	b8 89 c1 28 db       	mov    $0xdb28c189,%eax
  401bad:	c3                   	retq   

0000000000401bae <addval_177>:
  401bae:	8d 87 89 c1 38 d2    	lea    -0x2dc73e77(%rdi),%eax
  401bb4:	c3                   	retq   

0000000000401bb5 <getval_493>:
  401bb5:	b8 0a 4f 81 ca       	mov    $0xca814f0a,%eax
  401bba:	c3                   	retq   

0000000000401bbb <addval_255>:
  401bbb:	8d 87 89 ca 28 d2    	lea    -0x2dd73577(%rdi),%eax
  401bc1:	c3                   	retq   

0000000000401bc2 <setval_465>:
  401bc2:	c7 07 48 89 e0 92    	movl   $0x92e08948,(%rdi)
  401bc8:	c3                   	retq   

0000000000401bc9 <setval_393>:
  401bc9:	c7 07 8b c1 90 90    	movl   $0x9090c18b,(%rdi)
  401bcf:	c3                   	retq   

0000000000401bd0 <end_farm>:
  401bd0:	b8 01 00 00 00       	mov    $0x1,%eax
  401bd5:	c3                   	retq   

0000000000401bd6 <save_char>:
  401bd6:	8b 05 68 45 20 00    	mov    0x204568(%rip),%eax        # 606144 <gets_cnt>
  401bdc:	3d ff 03 00 00       	cmp    $0x3ff,%eax
  401be1:	7f 49                	jg     401c2c <save_char+0x56>
  401be3:	8d 14 40             	lea    (%rax,%rax,2),%edx
  401be6:	89 f9                	mov    %edi,%ecx
  401be8:	c0 e9 04             	shr    $0x4,%cl
  401beb:	83 e1 0f             	and    $0xf,%ecx
  401bee:	0f b6 b1 a0 38 40 00 	movzbl 0x4038a0(%rcx),%esi
  401bf5:	48 63 ca             	movslq %edx,%rcx
  401bf8:	40 88 b1 40 55 60 00 	mov    %sil,0x605540(%rcx)
  401bff:	8d 4a 01             	lea    0x1(%rdx),%ecx
  401c02:	83 e7 0f             	and    $0xf,%edi
  401c05:	0f b6 b7 a0 38 40 00 	movzbl 0x4038a0(%rdi),%esi
  401c0c:	48 63 c9             	movslq %ecx,%rcx
  401c0f:	40 88 b1 40 55 60 00 	mov    %sil,0x605540(%rcx)
  401c16:	83 c2 02             	add    $0x2,%edx
  401c19:	48 63 d2             	movslq %edx,%rdx
  401c1c:	c6 82 40 55 60 00 20 	movb   $0x20,0x605540(%rdx)
  401c23:	83 c0 01             	add    $0x1,%eax
  401c26:	89 05 18 45 20 00    	mov    %eax,0x204518(%rip)        # 606144 <gets_cnt>
  401c2c:	f3 c3                	repz retq 

0000000000401c2e <save_term>:
  401c2e:	8b 05 10 45 20 00    	mov    0x204510(%rip),%eax        # 606144 <gets_cnt>
  401c34:	8d 04 40             	lea    (%rax,%rax,2),%eax
  401c37:	48 98                	cltq   
  401c39:	c6 80 40 55 60 00 00 	movb   $0x0,0x605540(%rax)
  401c40:	c3                   	retq   

0000000000401c41 <check_fail>:
  401c41:	48 83 ec 08          	sub    $0x8,%rsp
  401c45:	0f be 15 fc 44 20 00 	movsbl 0x2044fc(%rip),%edx        # 606148 <target_prefix>
  401c4c:	41 b8 40 55 60 00    	mov    $0x605540,%r8d
  401c52:	8b 0d c0 38 20 00    	mov    0x2038c0(%rip),%ecx        # 605518 <check_level>
  401c58:	be 9b 35 40 00       	mov    $0x40359b,%esi
  401c5d:	bf 01 00 00 00       	mov    $0x1,%edi
  401c62:	b8 00 00 00 00       	mov    $0x0,%eax
  401c67:	e8 94 f1 ff ff       	callq  400e00 <__printf_chk@plt>
  401c6c:	bf 01 00 00 00       	mov    $0x1,%edi
  401c71:	e8 da f1 ff ff       	callq  400e50 <exit@plt>

0000000000401c76 <Gets>:
  401c76:	41 54                	push   %r12
  401c78:	55                   	push   %rbp
  401c79:	53                   	push   %rbx
  401c7a:	49 89 fc             	mov    %rdi,%r12
  401c7d:	c7 05 bd 44 20 00 00 	movl   $0x0,0x2044bd(%rip)        # 606144 <gets_cnt>
  401c84:	00 00 00 
  401c87:	48 89 fb             	mov    %rdi,%rbx
  401c8a:	eb 11                	jmp    401c9d <Gets+0x27>
  401c8c:	48 8d 6b 01          	lea    0x1(%rbx),%rbp
  401c90:	88 03                	mov    %al,(%rbx)
  401c92:	0f b6 f8             	movzbl %al,%edi
  401c95:	e8 3c ff ff ff       	callq  401bd6 <save_char>
  401c9a:	48 89 eb             	mov    %rbp,%rbx
  401c9d:	48 8b 3d 6c 38 20 00 	mov    0x20386c(%rip),%rdi        # 605510 <infile>
  401ca4:	e8 27 f1 ff ff       	callq  400dd0 <_IO_getc@plt>
  401ca9:	83 f8 ff             	cmp    $0xffffffff,%eax
  401cac:	74 05                	je     401cb3 <Gets+0x3d>
  401cae:	83 f8 0a             	cmp    $0xa,%eax
  401cb1:	75 d9                	jne    401c8c <Gets+0x16>
  401cb3:	c6 03 00             	movb   $0x0,(%rbx)
  401cb6:	b8 00 00 00 00       	mov    $0x0,%eax
  401cbb:	e8 6e ff ff ff       	callq  401c2e <save_term>
  401cc0:	4c 89 e0             	mov    %r12,%rax
  401cc3:	5b                   	pop    %rbx
  401cc4:	5d                   	pop    %rbp
  401cc5:	41 5c                	pop    %r12
  401cc7:	c3                   	retq   

0000000000401cc8 <notify_server>:
  401cc8:	53                   	push   %rbx
  401cc9:	48 81 ec 10 40 00 00 	sub    $0x4010,%rsp
  401cd0:	64 48 8b 04 25 28 00 	mov    %fs:0x28,%rax
  401cd7:	00 00 
  401cd9:	48 89 84 24 08 40 00 	mov    %rax,0x4008(%rsp)
  401ce0:	00 
  401ce1:	31 c0                	xor    %eax,%eax
  401ce3:	83 3d 3e 38 20 00 00 	cmpl   $0x0,0x20383e(%rip)        # 605528 <is_checker>
  401cea:	0f 85 aa 01 00 00    	jne    401e9a <notify_server+0x1d2>
  401cf0:	89 fb                	mov    %edi,%ebx
  401cf2:	8b 05 4c 44 20 00    	mov    0x20444c(%rip),%eax        # 606144 <gets_cnt>
  401cf8:	83 c0 64             	add    $0x64,%eax
  401cfb:	3d 00 20 00 00       	cmp    $0x2000,%eax
  401d00:	7e 1e                	jle    401d20 <notify_server+0x58>
  401d02:	be d0 36 40 00       	mov    $0x4036d0,%esi
  401d07:	bf 01 00 00 00       	mov    $0x1,%edi
  401d0c:	b8 00 00 00 00       	mov    $0x0,%eax
  401d11:	e8 ea f0 ff ff       	callq  400e00 <__printf_chk@plt>
  401d16:	bf 01 00 00 00       	mov    $0x1,%edi
  401d1b:	e8 30 f1 ff ff       	callq  400e50 <exit@plt>
  401d20:	0f be 05 21 44 20 00 	movsbl 0x204421(%rip),%eax        # 606148 <target_prefix>
  401d27:	83 3d 7a 37 20 00 00 	cmpl   $0x0,0x20377a(%rip)        # 6054a8 <notify>
  401d2e:	74 08                	je     401d38 <notify_server+0x70>
  401d30:	8b 15 ea 37 20 00    	mov    0x2037ea(%rip),%edx        # 605520 <authkey>
  401d36:	eb 05                	jmp    401d3d <notify_server+0x75>
  401d38:	ba ff ff ff ff       	mov    $0xffffffff,%edx
  401d3d:	85 db                	test   %ebx,%ebx
  401d3f:	74 08                	je     401d49 <notify_server+0x81>
  401d41:	41 b9 b1 35 40 00    	mov    $0x4035b1,%r9d
  401d47:	eb 06                	jmp    401d4f <notify_server+0x87>
  401d49:	41 b9 b6 35 40 00    	mov    $0x4035b6,%r9d
  401d4f:	68 40 55 60 00       	pushq  $0x605540
  401d54:	56                   	push   %rsi
  401d55:	50                   	push   %rax
  401d56:	52                   	push   %rdx
  401d57:	44 8b 05 0a 34 20 00 	mov    0x20340a(%rip),%r8d        # 605168 <target_id>
  401d5e:	b9 bb 35 40 00       	mov    $0x4035bb,%ecx
  401d63:	ba 00 20 00 00       	mov    $0x2000,%edx
  401d68:	be 01 00 00 00       	mov    $0x1,%esi
  401d6d:	48 8d 7c 24 20       	lea    0x20(%rsp),%rdi
  401d72:	b8 00 00 00 00       	mov    $0x0,%eax
  401d77:	e8 04 f1 ff ff       	callq  400e80 <__sprintf_chk@plt>
  401d7c:	48 83 c4 20          	add    $0x20,%rsp
  401d80:	83 3d 21 37 20 00 00 	cmpl   $0x0,0x203721(%rip)        # 6054a8 <notify>
  401d87:	0f 84 81 00 00 00    	je     401e0e <notify_server+0x146>
  401d8d:	85 db                	test   %ebx,%ebx
  401d8f:	74 6e                	je     401dff <notify_server+0x137>
  401d91:	4c 8d 8c 24 00 20 00 	lea    0x2000(%rsp),%r9
  401d98:	00 
  401d99:	41 b8 00 00 00 00    	mov    $0x0,%r8d
  401d9f:	48 89 e1             	mov    %rsp,%rcx
  401da2:	48 8b 15 c7 33 20 00 	mov    0x2033c7(%rip),%rdx        # 605170 <lab>
  401da9:	48 8b 35 c8 33 20 00 	mov    0x2033c8(%rip),%rsi        # 605178 <course>
  401db0:	48 8b 3d a9 33 20 00 	mov    0x2033a9(%rip),%rdi        # 605160 <user_id>
  401db7:	e8 ef 10 00 00       	callq  402eab <driver_post>
  401dbc:	85 c0                	test   %eax,%eax
  401dbe:	79 26                	jns    401de6 <notify_server+0x11e>
  401dc0:	48 8d 94 24 00 20 00 	lea    0x2000(%rsp),%rdx
  401dc7:	00 
  401dc8:	be d7 35 40 00       	mov    $0x4035d7,%esi
  401dcd:	bf 01 00 00 00       	mov    $0x1,%edi
  401dd2:	b8 00 00 00 00       	mov    $0x0,%eax
  401dd7:	e8 24 f0 ff ff       	callq  400e00 <__printf_chk@plt>
  401ddc:	bf 01 00 00 00       	mov    $0x1,%edi
  401de1:	e8 6a f0 ff ff       	callq  400e50 <exit@plt>
  401de6:	bf 00 37 40 00       	mov    $0x403700,%edi
  401deb:	e8 e0 ee ff ff       	callq  400cd0 <puts@plt>
  401df0:	bf e3 35 40 00       	mov    $0x4035e3,%edi
  401df5:	e8 d6 ee ff ff       	callq  400cd0 <puts@plt>
  401dfa:	e9 9b 00 00 00       	jmpq   401e9a <notify_server+0x1d2>
  401dff:	bf ed 35 40 00       	mov    $0x4035ed,%edi
  401e04:	e8 c7 ee ff ff       	callq  400cd0 <puts@plt>
  401e09:	e9 8c 00 00 00       	jmpq   401e9a <notify_server+0x1d2>
  401e0e:	85 db                	test   %ebx,%ebx
  401e10:	74 07                	je     401e19 <notify_server+0x151>
  401e12:	ba b1 35 40 00       	mov    $0x4035b1,%edx
  401e17:	eb 05                	jmp    401e1e <notify_server+0x156>
  401e19:	ba b6 35 40 00       	mov    $0x4035b6,%edx
  401e1e:	be 38 37 40 00       	mov    $0x403738,%esi
  401e23:	bf 01 00 00 00       	mov    $0x1,%edi
  401e28:	b8 00 00 00 00       	mov    $0x0,%eax
  401e2d:	e8 ce ef ff ff       	callq  400e00 <__printf_chk@plt>
  401e32:	48 8b 15 27 33 20 00 	mov    0x203327(%rip),%rdx        # 605160 <user_id>
  401e39:	be f4 35 40 00       	mov    $0x4035f4,%esi
  401e3e:	bf 01 00 00 00       	mov    $0x1,%edi
  401e43:	b8 00 00 00 00       	mov    $0x0,%eax
  401e48:	e8 b3 ef ff ff       	callq  400e00 <__printf_chk@plt>
  401e4d:	48 8b 15 24 33 20 00 	mov    0x203324(%rip),%rdx        # 605178 <course>
  401e54:	be 01 36 40 00       	mov    $0x403601,%esi
  401e59:	bf 01 00 00 00       	mov    $0x1,%edi
  401e5e:	b8 00 00 00 00       	mov    $0x0,%eax
  401e63:	e8 98 ef ff ff       	callq  400e00 <__printf_chk@plt>
  401e68:	48 8b 15 01 33 20 00 	mov    0x203301(%rip),%rdx        # 605170 <lab>
  401e6f:	be 0d 36 40 00       	mov    $0x40360d,%esi
  401e74:	bf 01 00 00 00       	mov    $0x1,%edi
  401e79:	b8 00 00 00 00       	mov    $0x0,%eax
  401e7e:	e8 7d ef ff ff       	callq  400e00 <__printf_chk@plt>
  401e83:	48 89 e2             	mov    %rsp,%rdx
  401e86:	be 16 36 40 00       	mov    $0x403616,%esi
  401e8b:	bf 01 00 00 00       	mov    $0x1,%edi
  401e90:	b8 00 00 00 00       	mov    $0x0,%eax
  401e95:	e8 66 ef ff ff       	callq  400e00 <__printf_chk@plt>
  401e9a:	48 8b 84 24 08 40 00 	mov    0x4008(%rsp),%rax
  401ea1:	00 
  401ea2:	64 48 33 04 25 28 00 	xor    %fs:0x28,%rax
  401ea9:	00 00 
  401eab:	74 05                	je     401eb2 <notify_server+0x1ea>
  401ead:	e8 3e ee ff ff       	callq  400cf0 <__stack_chk_fail@plt>
  401eb2:	48 81 c4 10 40 00 00 	add    $0x4010,%rsp
  401eb9:	5b                   	pop    %rbx
  401eba:	c3                   	retq   

0000000000401ebb <validate>:
  401ebb:	53                   	push   %rbx
  401ebc:	89 fb                	mov    %edi,%ebx
  401ebe:	83 3d 63 36 20 00 00 	cmpl   $0x0,0x203663(%rip)        # 605528 <is_checker>
  401ec5:	74 6b                	je     401f32 <validate+0x77>
  401ec7:	39 3d 4f 36 20 00    	cmp    %edi,0x20364f(%rip)        # 60551c <vlevel>
  401ecd:	74 14                	je     401ee3 <validate+0x28>
  401ecf:	bf 22 36 40 00       	mov    $0x403622,%edi
  401ed4:	e8 f7 ed ff ff       	callq  400cd0 <puts@plt>
  401ed9:	b8 00 00 00 00       	mov    $0x0,%eax
  401ede:	e8 5e fd ff ff       	callq  401c41 <check_fail>
  401ee3:	8b 15 2f 36 20 00    	mov    0x20362f(%rip),%edx        # 605518 <check_level>
  401ee9:	39 d7                	cmp    %edx,%edi
  401eeb:	74 20                	je     401f0d <validate+0x52>
  401eed:	89 f9                	mov    %edi,%ecx
  401eef:	be 60 37 40 00       	mov    $0x403760,%esi
  401ef4:	bf 01 00 00 00       	mov    $0x1,%edi
  401ef9:	b8 00 00 00 00       	mov    $0x0,%eax
  401efe:	e8 fd ee ff ff       	callq  400e00 <__printf_chk@plt>
  401f03:	b8 00 00 00 00       	mov    $0x0,%eax
  401f08:	e8 34 fd ff ff       	callq  401c41 <check_fail>
  401f0d:	0f be 15 34 42 20 00 	movsbl 0x204234(%rip),%edx        # 606148 <target_prefix>
  401f14:	41 b8 40 55 60 00    	mov    $0x605540,%r8d
  401f1a:	89 f9                	mov    %edi,%ecx
  401f1c:	be 40 36 40 00       	mov    $0x403640,%esi
  401f21:	bf 01 00 00 00       	mov    $0x1,%edi
  401f26:	b8 00 00 00 00       	mov    $0x0,%eax
  401f2b:	e8 d0 ee ff ff       	callq  400e00 <__printf_chk@plt>
  401f30:	eb 49                	jmp    401f7b <validate+0xc0>
  401f32:	3b 3d e4 35 20 00    	cmp    0x2035e4(%rip),%edi        # 60551c <vlevel>
  401f38:	74 18                	je     401f52 <validate+0x97>
  401f3a:	bf 22 36 40 00       	mov    $0x403622,%edi
  401f3f:	e8 8c ed ff ff       	callq  400cd0 <puts@plt>
  401f44:	89 de                	mov    %ebx,%esi
  401f46:	bf 00 00 00 00       	mov    $0x0,%edi
  401f4b:	e8 78 fd ff ff       	callq  401cc8 <notify_server>
  401f50:	eb 29                	jmp    401f7b <validate+0xc0>
  401f52:	0f be 0d ef 41 20 00 	movsbl 0x2041ef(%rip),%ecx        # 606148 <target_prefix>
  401f59:	89 fa                	mov    %edi,%edx
  401f5b:	be 88 37 40 00       	mov    $0x403788,%esi
  401f60:	bf 01 00 00 00       	mov    $0x1,%edi
  401f65:	b8 00 00 00 00       	mov    $0x0,%eax
  401f6a:	e8 91 ee ff ff       	callq  400e00 <__printf_chk@plt>
  401f6f:	89 de                	mov    %ebx,%esi
  401f71:	bf 01 00 00 00       	mov    $0x1,%edi
  401f76:	e8 4d fd ff ff       	callq  401cc8 <notify_server>
  401f7b:	5b                   	pop    %rbx
  401f7c:	c3                   	retq   

0000000000401f7d <fail>:
  401f7d:	48 83 ec 08          	sub    $0x8,%rsp
  401f81:	83 3d a0 35 20 00 00 	cmpl   $0x0,0x2035a0(%rip)        # 605528 <is_checker>
  401f88:	74 0a                	je     401f94 <fail+0x17>
  401f8a:	b8 00 00 00 00       	mov    $0x0,%eax
  401f8f:	e8 ad fc ff ff       	callq  401c41 <check_fail>
  401f94:	89 fe                	mov    %edi,%esi
  401f96:	bf 00 00 00 00       	mov    $0x0,%edi
  401f9b:	e8 28 fd ff ff       	callq  401cc8 <notify_server>
  401fa0:	48 83 c4 08          	add    $0x8,%rsp
  401fa4:	c3                   	retq   

0000000000401fa5 <bushandler>:
  401fa5:	48 83 ec 08          	sub    $0x8,%rsp
  401fa9:	83 3d 78 35 20 00 00 	cmpl   $0x0,0x203578(%rip)        # 605528 <is_checker>
  401fb0:	74 14                	je     401fc6 <bushandler+0x21>
  401fb2:	bf 55 36 40 00       	mov    $0x403655,%edi
  401fb7:	e8 14 ed ff ff       	callq  400cd0 <puts@plt>
  401fbc:	b8 00 00 00 00       	mov    $0x0,%eax
  401fc1:	e8 7b fc ff ff       	callq  401c41 <check_fail>
  401fc6:	bf c0 37 40 00       	mov    $0x4037c0,%edi
  401fcb:	e8 00 ed ff ff       	callq  400cd0 <puts@plt>
  401fd0:	bf 5f 36 40 00       	mov    $0x40365f,%edi
  401fd5:	e8 f6 ec ff ff       	callq  400cd0 <puts@plt>
  401fda:	be 00 00 00 00       	mov    $0x0,%esi
  401fdf:	bf 00 00 00 00       	mov    $0x0,%edi
  401fe4:	e8 df fc ff ff       	callq  401cc8 <notify_server>
  401fe9:	bf 01 00 00 00       	mov    $0x1,%edi
  401fee:	e8 5d ee ff ff       	callq  400e50 <exit@plt>

0000000000401ff3 <seghandler>:
  401ff3:	48 83 ec 08          	sub    $0x8,%rsp
  401ff7:	83 3d 2a 35 20 00 00 	cmpl   $0x0,0x20352a(%rip)        # 605528 <is_checker>
  401ffe:	74 14                	je     402014 <seghandler+0x21>
  402000:	bf 75 36 40 00       	mov    $0x403675,%edi
  402005:	e8 c6 ec ff ff       	callq  400cd0 <puts@plt>
  40200a:	b8 00 00 00 00       	mov    $0x0,%eax
  40200f:	e8 2d fc ff ff       	callq  401c41 <check_fail>
  402014:	bf e0 37 40 00       	mov    $0x4037e0,%edi
  402019:	e8 b2 ec ff ff       	callq  400cd0 <puts@plt>
  40201e:	bf 5f 36 40 00       	mov    $0x40365f,%edi
  402023:	e8 a8 ec ff ff       	callq  400cd0 <puts@plt>
  402028:	be 00 00 00 00       	mov    $0x0,%esi
  40202d:	bf 00 00 00 00       	mov    $0x0,%edi
  402032:	e8 91 fc ff ff       	callq  401cc8 <notify_server>
  402037:	bf 01 00 00 00       	mov    $0x1,%edi
  40203c:	e8 0f ee ff ff       	callq  400e50 <exit@plt>

0000000000402041 <illegalhandler>:
  402041:	48 83 ec 08          	sub    $0x8,%rsp
  402045:	83 3d dc 34 20 00 00 	cmpl   $0x0,0x2034dc(%rip)        # 605528 <is_checker>
  40204c:	74 14                	je     402062 <illegalhandler+0x21>
  40204e:	bf 88 36 40 00       	mov    $0x403688,%edi
  402053:	e8 78 ec ff ff       	callq  400cd0 <puts@plt>
  402058:	b8 00 00 00 00       	mov    $0x0,%eax
  40205d:	e8 df fb ff ff       	callq  401c41 <check_fail>
  402062:	bf 08 38 40 00       	mov    $0x403808,%edi
  402067:	e8 64 ec ff ff       	callq  400cd0 <puts@plt>
  40206c:	bf 5f 36 40 00       	mov    $0x40365f,%edi
  402071:	e8 5a ec ff ff       	callq  400cd0 <puts@plt>
  402076:	be 00 00 00 00       	mov    $0x0,%esi
  40207b:	bf 00 00 00 00       	mov    $0x0,%edi
  402080:	e8 43 fc ff ff       	callq  401cc8 <notify_server>
  402085:	bf 01 00 00 00       	mov    $0x1,%edi
  40208a:	e8 c1 ed ff ff       	callq  400e50 <exit@plt>

000000000040208f <sigalrmhandler>:
  40208f:	48 83 ec 08          	sub    $0x8,%rsp
  402093:	83 3d 8e 34 20 00 00 	cmpl   $0x0,0x20348e(%rip)        # 605528 <is_checker>
  40209a:	74 14                	je     4020b0 <sigalrmhandler+0x21>
  40209c:	bf 9c 36 40 00       	mov    $0x40369c,%edi
  4020a1:	e8 2a ec ff ff       	callq  400cd0 <puts@plt>
  4020a6:	b8 00 00 00 00       	mov    $0x0,%eax
  4020ab:	e8 91 fb ff ff       	callq  401c41 <check_fail>
  4020b0:	ba 05 00 00 00       	mov    $0x5,%edx
  4020b5:	be 38 38 40 00       	mov    $0x403838,%esi
  4020ba:	bf 01 00 00 00       	mov    $0x1,%edi
  4020bf:	b8 00 00 00 00       	mov    $0x0,%eax
  4020c4:	e8 37 ed ff ff       	callq  400e00 <__printf_chk@plt>
  4020c9:	be 00 00 00 00       	mov    $0x0,%esi
  4020ce:	bf 00 00 00 00       	mov    $0x0,%edi
  4020d3:	e8 f0 fb ff ff       	callq  401cc8 <notify_server>
  4020d8:	bf 01 00 00 00       	mov    $0x1,%edi
  4020dd:	e8 6e ed ff ff       	callq  400e50 <exit@plt>

00000000004020e2 <launch>:
  4020e2:	55                   	push   %rbp
  4020e3:	48 89 e5             	mov    %rsp,%rbp
  4020e6:	48 83 ec 10          	sub    $0x10,%rsp
  4020ea:	48 89 fa             	mov    %rdi,%rdx
  4020ed:	64 48 8b 04 25 28 00 	mov    %fs:0x28,%rax
  4020f4:	00 00 
  4020f6:	48 89 45 f8          	mov    %rax,-0x8(%rbp)
  4020fa:	31 c0                	xor    %eax,%eax
  4020fc:	48 8d 47 1e          	lea    0x1e(%rdi),%rax
  402100:	48 83 e0 f0          	and    $0xfffffffffffffff0,%rax
  402104:	48 29 c4             	sub    %rax,%rsp
  402107:	48 8d 7c 24 0f       	lea    0xf(%rsp),%rdi
  40210c:	48 83 e7 f0          	and    $0xfffffffffffffff0,%rdi
  402110:	be f4 00 00 00       	mov    $0xf4,%esi
  402115:	e8 f6 eb ff ff       	callq  400d10 <memset@plt>
  40211a:	48 8b 05 9f 33 20 00 	mov    0x20339f(%rip),%rax        # 6054c0 <stdin@@GLIBC_2.2.5>
  402121:	48 39 05 e8 33 20 00 	cmp    %rax,0x2033e8(%rip)        # 605510 <infile>
  402128:	75 14                	jne    40213e <launch+0x5c>
  40212a:	be a4 36 40 00       	mov    $0x4036a4,%esi
  40212f:	bf 01 00 00 00       	mov    $0x1,%edi
  402134:	b8 00 00 00 00       	mov    $0x0,%eax
  402139:	e8 c2 ec ff ff       	callq  400e00 <__printf_chk@plt>
  40213e:	c7 05 d4 33 20 00 00 	movl   $0x0,0x2033d4(%rip)        # 60551c <vlevel>
  402145:	00 00 00 
  402148:	b8 00 00 00 00       	mov    $0x0,%eax
  40214d:	e8 36 f9 ff ff       	callq  401a88 <test>
  402152:	83 3d cf 33 20 00 00 	cmpl   $0x0,0x2033cf(%rip)        # 605528 <is_checker>
  402159:	74 14                	je     40216f <launch+0x8d>
  40215b:	bf b1 36 40 00       	mov    $0x4036b1,%edi
  402160:	e8 6b eb ff ff       	callq  400cd0 <puts@plt>
  402165:	b8 00 00 00 00       	mov    $0x0,%eax
  40216a:	e8 d2 fa ff ff       	callq  401c41 <check_fail>
  40216f:	bf bc 36 40 00       	mov    $0x4036bc,%edi
  402174:	e8 57 eb ff ff       	callq  400cd0 <puts@plt>
  402179:	48 8b 45 f8          	mov    -0x8(%rbp),%rax
  40217d:	64 48 33 04 25 28 00 	xor    %fs:0x28,%rax
  402184:	00 00 
  402186:	74 05                	je     40218d <launch+0xab>
  402188:	e8 63 eb ff ff       	callq  400cf0 <__stack_chk_fail@plt>
  40218d:	c9                   	leaveq 
  40218e:	c3                   	retq   

000000000040218f <stable_launch>:
  40218f:	53                   	push   %rbx
  402190:	48 89 3d 71 33 20 00 	mov    %rdi,0x203371(%rip)        # 605508 <global_offset>
  402197:	41 b9 00 00 00 00    	mov    $0x0,%r9d
  40219d:	41 b8 00 00 00 00    	mov    $0x0,%r8d
  4021a3:	b9 32 01 00 00       	mov    $0x132,%ecx
  4021a8:	ba 07 00 00 00       	mov    $0x7,%edx
  4021ad:	be 00 00 10 00       	mov    $0x100000,%esi
  4021b2:	bf 00 60 58 55       	mov    $0x55586000,%edi
  4021b7:	e8 44 eb ff ff       	callq  400d00 <mmap@plt>
  4021bc:	48 89 c3             	mov    %rax,%rbx
  4021bf:	48 3d 00 60 58 55    	cmp    $0x55586000,%rax
  4021c5:	74 37                	je     4021fe <stable_launch+0x6f>
  4021c7:	be 00 00 10 00       	mov    $0x100000,%esi
  4021cc:	48 89 c7             	mov    %rax,%rdi
  4021cf:	e8 1c ec ff ff       	callq  400df0 <munmap@plt>
  4021d4:	b9 00 60 58 55       	mov    $0x55586000,%ecx
  4021d9:	ba 70 38 40 00       	mov    $0x403870,%edx
  4021de:	be 01 00 00 00       	mov    $0x1,%esi
  4021e3:	48 8b 3d f6 32 20 00 	mov    0x2032f6(%rip),%rdi        # 6054e0 <stderr@@GLIBC_2.2.5>
  4021ea:	b8 00 00 00 00       	mov    $0x0,%eax
  4021ef:	e8 7c ec ff ff       	callq  400e70 <__fprintf_chk@plt>
  4021f4:	bf 01 00 00 00       	mov    $0x1,%edi
  4021f9:	e8 52 ec ff ff       	callq  400e50 <exit@plt>
  4021fe:	48 8d 90 f8 ff 0f 00 	lea    0xffff8(%rax),%rdx
  402205:	48 89 15 44 3f 20 00 	mov    %rdx,0x203f44(%rip)        # 606150 <stack_top>
  40220c:	48 89 e0             	mov    %rsp,%rax
  40220f:	48 89 d4             	mov    %rdx,%rsp
  402212:	48 89 c2             	mov    %rax,%rdx
  402215:	48 89 15 e4 32 20 00 	mov    %rdx,0x2032e4(%rip)        # 605500 <global_save_stack>
  40221c:	48 8b 3d e5 32 20 00 	mov    0x2032e5(%rip),%rdi        # 605508 <global_offset>
  402223:	e8 ba fe ff ff       	callq  4020e2 <launch>
  402228:	48 8b 05 d1 32 20 00 	mov    0x2032d1(%rip),%rax        # 605500 <global_save_stack>
  40222f:	48 89 c4             	mov    %rax,%rsp
  402232:	be 00 00 10 00       	mov    $0x100000,%esi
  402237:	48 89 df             	mov    %rbx,%rdi
  40223a:	e8 b1 eb ff ff       	callq  400df0 <munmap@plt>
  40223f:	5b                   	pop    %rbx
  402240:	c3                   	retq   

0000000000402241 <rio_readinitb>:
  402241:	89 37                	mov    %esi,(%rdi)
  402243:	c7 47 04 00 00 00 00 	movl   $0x0,0x4(%rdi)
  40224a:	48 8d 47 10          	lea    0x10(%rdi),%rax
  40224e:	48 89 47 08          	mov    %rax,0x8(%rdi)
  402252:	c3                   	retq   

0000000000402253 <sigalrm_handler>:
  402253:	48 83 ec 08          	sub    $0x8,%rsp
  402257:	b9 00 00 00 00       	mov    $0x0,%ecx
  40225c:	ba b0 38 40 00       	mov    $0x4038b0,%edx
  402261:	be 01 00 00 00       	mov    $0x1,%esi
  402266:	48 8b 3d 73 32 20 00 	mov    0x203273(%rip),%rdi        # 6054e0 <stderr@@GLIBC_2.2.5>
  40226d:	b8 00 00 00 00       	mov    $0x0,%eax
  402272:	e8 f9 eb ff ff       	callq  400e70 <__fprintf_chk@plt>
  402277:	bf 01 00 00 00       	mov    $0x1,%edi
  40227c:	e8 cf eb ff ff       	callq  400e50 <exit@plt>

0000000000402281 <rio_writen>:
  402281:	41 55                	push   %r13
  402283:	41 54                	push   %r12
  402285:	55                   	push   %rbp
  402286:	53                   	push   %rbx
  402287:	48 83 ec 08          	sub    $0x8,%rsp
  40228b:	41 89 fc             	mov    %edi,%r12d
  40228e:	48 89 f5             	mov    %rsi,%rbp
  402291:	49 89 d5             	mov    %rdx,%r13
  402294:	48 89 d3             	mov    %rdx,%rbx
  402297:	eb 28                	jmp    4022c1 <rio_writen+0x40>
  402299:	48 89 da             	mov    %rbx,%rdx
  40229c:	48 89 ee             	mov    %rbp,%rsi
  40229f:	44 89 e7             	mov    %r12d,%edi
  4022a2:	e8 39 ea ff ff       	callq  400ce0 <write@plt>
  4022a7:	48 85 c0             	test   %rax,%rax
  4022aa:	7f 0f                	jg     4022bb <rio_writen+0x3a>
  4022ac:	e8 df e9 ff ff       	callq  400c90 <__errno_location@plt>
  4022b1:	83 38 04             	cmpl   $0x4,(%rax)
  4022b4:	75 15                	jne    4022cb <rio_writen+0x4a>
  4022b6:	b8 00 00 00 00       	mov    $0x0,%eax
  4022bb:	48 29 c3             	sub    %rax,%rbx
  4022be:	48 01 c5             	add    %rax,%rbp
  4022c1:	48 85 db             	test   %rbx,%rbx
  4022c4:	75 d3                	jne    402299 <rio_writen+0x18>
  4022c6:	4c 89 e8             	mov    %r13,%rax
  4022c9:	eb 07                	jmp    4022d2 <rio_writen+0x51>
  4022cb:	48 c7 c0 ff ff ff ff 	mov    $0xffffffffffffffff,%rax
  4022d2:	48 83 c4 08          	add    $0x8,%rsp
  4022d6:	5b                   	pop    %rbx
  4022d7:	5d                   	pop    %rbp
  4022d8:	41 5c                	pop    %r12
  4022da:	41 5d                	pop    %r13
  4022dc:	c3                   	retq   

00000000004022dd <rio_read>:
  4022dd:	41 55                	push   %r13
  4022df:	41 54                	push   %r12
  4022e1:	55                   	push   %rbp
  4022e2:	53                   	push   %rbx
  4022e3:	48 83 ec 08          	sub    $0x8,%rsp
  4022e7:	48 89 fb             	mov    %rdi,%rbx
  4022ea:	49 89 f5             	mov    %rsi,%r13
  4022ed:	49 89 d4             	mov    %rdx,%r12
  4022f0:	eb 2e                	jmp    402320 <rio_read+0x43>
  4022f2:	48 8d 6b 10          	lea    0x10(%rbx),%rbp
  4022f6:	8b 3b                	mov    (%rbx),%edi
  4022f8:	ba 00 20 00 00       	mov    $0x2000,%edx
  4022fd:	48 89 ee             	mov    %rbp,%rsi
  402300:	e8 3b ea ff ff       	callq  400d40 <read@plt>
  402305:	89 43 04             	mov    %eax,0x4(%rbx)
  402308:	85 c0                	test   %eax,%eax
  40230a:	79 0c                	jns    402318 <rio_read+0x3b>
  40230c:	e8 7f e9 ff ff       	callq  400c90 <__errno_location@plt>
  402311:	83 38 04             	cmpl   $0x4,(%rax)
  402314:	74 0a                	je     402320 <rio_read+0x43>
  402316:	eb 37                	jmp    40234f <rio_read+0x72>
  402318:	85 c0                	test   %eax,%eax
  40231a:	74 3c                	je     402358 <rio_read+0x7b>
  40231c:	48 89 6b 08          	mov    %rbp,0x8(%rbx)
  402320:	8b 6b 04             	mov    0x4(%rbx),%ebp
  402323:	85 ed                	test   %ebp,%ebp
  402325:	7e cb                	jle    4022f2 <rio_read+0x15>
  402327:	89 e8                	mov    %ebp,%eax
  402329:	49 39 c4             	cmp    %rax,%r12
  40232c:	77 03                	ja     402331 <rio_read+0x54>
  40232e:	44 89 e5             	mov    %r12d,%ebp
  402331:	4c 63 e5             	movslq %ebp,%r12
  402334:	48 8b 73 08          	mov    0x8(%rbx),%rsi
  402338:	4c 89 e2             	mov    %r12,%rdx
  40233b:	4c 89 ef             	mov    %r13,%rdi
  40233e:	e8 5d ea ff ff       	callq  400da0 <memcpy@plt>
  402343:	4c 01 63 08          	add    %r12,0x8(%rbx)
  402347:	29 6b 04             	sub    %ebp,0x4(%rbx)
  40234a:	4c 89 e0             	mov    %r12,%rax
  40234d:	eb 0e                	jmp    40235d <rio_read+0x80>
  40234f:	48 c7 c0 ff ff ff ff 	mov    $0xffffffffffffffff,%rax
  402356:	eb 05                	jmp    40235d <rio_read+0x80>
  402358:	b8 00 00 00 00       	mov    $0x0,%eax
  40235d:	48 83 c4 08          	add    $0x8,%rsp
  402361:	5b                   	pop    %rbx
  402362:	5d                   	pop    %rbp
  402363:	41 5c                	pop    %r12
  402365:	41 5d                	pop    %r13
  402367:	c3                   	retq   

0000000000402368 <rio_readlineb>:
  402368:	41 55                	push   %r13
  40236a:	41 54                	push   %r12
  40236c:	55                   	push   %rbp
  40236d:	53                   	push   %rbx
  40236e:	48 83 ec 18          	sub    $0x18,%rsp
  402372:	49 89 fd             	mov    %rdi,%r13
  402375:	48 89 f5             	mov    %rsi,%rbp
  402378:	49 89 d4             	mov    %rdx,%r12
  40237b:	64 48 8b 04 25 28 00 	mov    %fs:0x28,%rax
  402382:	00 00 
  402384:	48 89 44 24 08       	mov    %rax,0x8(%rsp)
  402389:	31 c0                	xor    %eax,%eax
  40238b:	bb 01 00 00 00       	mov    $0x1,%ebx
  402390:	eb 3f                	jmp    4023d1 <rio_readlineb+0x69>
  402392:	ba 01 00 00 00       	mov    $0x1,%edx
  402397:	48 8d 74 24 07       	lea    0x7(%rsp),%rsi
  40239c:	4c 89 ef             	mov    %r13,%rdi
  40239f:	e8 39 ff ff ff       	callq  4022dd <rio_read>
  4023a4:	83 f8 01             	cmp    $0x1,%eax
  4023a7:	75 15                	jne    4023be <rio_readlineb+0x56>
  4023a9:	48 8d 45 01          	lea    0x1(%rbp),%rax
  4023ad:	0f b6 54 24 07       	movzbl 0x7(%rsp),%edx
  4023b2:	88 55 00             	mov    %dl,0x0(%rbp)
  4023b5:	80 7c 24 07 0a       	cmpb   $0xa,0x7(%rsp)
  4023ba:	75 0e                	jne    4023ca <rio_readlineb+0x62>
  4023bc:	eb 1a                	jmp    4023d8 <rio_readlineb+0x70>
  4023be:	85 c0                	test   %eax,%eax
  4023c0:	75 22                	jne    4023e4 <rio_readlineb+0x7c>
  4023c2:	48 83 fb 01          	cmp    $0x1,%rbx
  4023c6:	75 13                	jne    4023db <rio_readlineb+0x73>
  4023c8:	eb 23                	jmp    4023ed <rio_readlineb+0x85>
  4023ca:	48 83 c3 01          	add    $0x1,%rbx
  4023ce:	48 89 c5             	mov    %rax,%rbp
  4023d1:	4c 39 e3             	cmp    %r12,%rbx
  4023d4:	72 bc                	jb     402392 <rio_readlineb+0x2a>
  4023d6:	eb 03                	jmp    4023db <rio_readlineb+0x73>
  4023d8:	48 89 c5             	mov    %rax,%rbp
  4023db:	c6 45 00 00          	movb   $0x0,0x0(%rbp)
  4023df:	48 89 d8             	mov    %rbx,%rax
  4023e2:	eb 0e                	jmp    4023f2 <rio_readlineb+0x8a>
  4023e4:	48 c7 c0 ff ff ff ff 	mov    $0xffffffffffffffff,%rax
  4023eb:	eb 05                	jmp    4023f2 <rio_readlineb+0x8a>
  4023ed:	b8 00 00 00 00       	mov    $0x0,%eax
  4023f2:	48 8b 4c 24 08       	mov    0x8(%rsp),%rcx
  4023f7:	64 48 33 0c 25 28 00 	xor    %fs:0x28,%rcx
  4023fe:	00 00 
  402400:	74 05                	je     402407 <rio_readlineb+0x9f>
  402402:	e8 e9 e8 ff ff       	callq  400cf0 <__stack_chk_fail@plt>
  402407:	48 83 c4 18          	add    $0x18,%rsp
  40240b:	5b                   	pop    %rbx
  40240c:	5d                   	pop    %rbp
  40240d:	41 5c                	pop    %r12
  40240f:	41 5d                	pop    %r13
  402411:	c3                   	retq   

0000000000402412 <urlencode>:
  402412:	41 54                	push   %r12
  402414:	55                   	push   %rbp
  402415:	53                   	push   %rbx
  402416:	48 83 ec 10          	sub    $0x10,%rsp
  40241a:	48 89 fb             	mov    %rdi,%rbx
  40241d:	48 89 f5             	mov    %rsi,%rbp
  402420:	64 48 8b 04 25 28 00 	mov    %fs:0x28,%rax
  402427:	00 00 
  402429:	48 89 44 24 08       	mov    %rax,0x8(%rsp)
  40242e:	31 c0                	xor    %eax,%eax
  402430:	48 c7 c1 ff ff ff ff 	mov    $0xffffffffffffffff,%rcx
  402437:	f2 ae                	repnz scas %es:(%rdi),%al
  402439:	48 f7 d1             	not    %rcx
  40243c:	8d 41 ff             	lea    -0x1(%rcx),%eax
  40243f:	e9 aa 00 00 00       	jmpq   4024ee <urlencode+0xdc>
  402444:	44 0f b6 03          	movzbl (%rbx),%r8d
  402448:	41 80 f8 2a          	cmp    $0x2a,%r8b
  40244c:	0f 94 c2             	sete   %dl
  40244f:	41 80 f8 2d          	cmp    $0x2d,%r8b
  402453:	0f 94 c0             	sete   %al
  402456:	08 c2                	or     %al,%dl
  402458:	75 24                	jne    40247e <urlencode+0x6c>
  40245a:	41 80 f8 2e          	cmp    $0x2e,%r8b
  40245e:	74 1e                	je     40247e <urlencode+0x6c>
  402460:	41 80 f8 5f          	cmp    $0x5f,%r8b
  402464:	74 18                	je     40247e <urlencode+0x6c>
  402466:	41 8d 40 d0          	lea    -0x30(%r8),%eax
  40246a:	3c 09                	cmp    $0x9,%al
  40246c:	76 10                	jbe    40247e <urlencode+0x6c>
  40246e:	41 8d 40 bf          	lea    -0x41(%r8),%eax
  402472:	3c 19                	cmp    $0x19,%al
  402474:	76 08                	jbe    40247e <urlencode+0x6c>
  402476:	41 8d 40 9f          	lea    -0x61(%r8),%eax
  40247a:	3c 19                	cmp    $0x19,%al
  40247c:	77 0a                	ja     402488 <urlencode+0x76>
  40247e:	44 88 45 00          	mov    %r8b,0x0(%rbp)
  402482:	48 8d 6d 01          	lea    0x1(%rbp),%rbp
  402486:	eb 5f                	jmp    4024e7 <urlencode+0xd5>
  402488:	41 80 f8 20          	cmp    $0x20,%r8b
  40248c:	75 0a                	jne    402498 <urlencode+0x86>
  40248e:	c6 45 00 2b          	movb   $0x2b,0x0(%rbp)
  402492:	48 8d 6d 01          	lea    0x1(%rbp),%rbp
  402496:	eb 4f                	jmp    4024e7 <urlencode+0xd5>
  402498:	41 8d 40 e0          	lea    -0x20(%r8),%eax
  40249c:	3c 5f                	cmp    $0x5f,%al
  40249e:	0f 96 c2             	setbe  %dl
  4024a1:	41 80 f8 09          	cmp    $0x9,%r8b
  4024a5:	0f 94 c0             	sete   %al
  4024a8:	08 c2                	or     %al,%dl
  4024aa:	74 50                	je     4024fc <urlencode+0xea>
  4024ac:	45 0f b6 c0          	movzbl %r8b,%r8d
  4024b0:	b9 48 39 40 00       	mov    $0x403948,%ecx
  4024b5:	ba 08 00 00 00       	mov    $0x8,%edx
  4024ba:	be 01 00 00 00       	mov    $0x1,%esi
  4024bf:	48 89 e7             	mov    %rsp,%rdi
  4024c2:	b8 00 00 00 00       	mov    $0x0,%eax
  4024c7:	e8 b4 e9 ff ff       	callq  400e80 <__sprintf_chk@plt>
  4024cc:	0f b6 04 24          	movzbl (%rsp),%eax
  4024d0:	88 45 00             	mov    %al,0x0(%rbp)
  4024d3:	0f b6 44 24 01       	movzbl 0x1(%rsp),%eax
  4024d8:	88 45 01             	mov    %al,0x1(%rbp)
  4024db:	0f b6 44 24 02       	movzbl 0x2(%rsp),%eax
  4024e0:	88 45 02             	mov    %al,0x2(%rbp)
  4024e3:	48 8d 6d 03          	lea    0x3(%rbp),%rbp
  4024e7:	48 83 c3 01          	add    $0x1,%rbx
  4024eb:	44 89 e0             	mov    %r12d,%eax
  4024ee:	44 8d 60 ff          	lea    -0x1(%rax),%r12d
  4024f2:	85 c0                	test   %eax,%eax
  4024f4:	0f 85 4a ff ff ff    	jne    402444 <urlencode+0x32>
  4024fa:	eb 05                	jmp    402501 <urlencode+0xef>
  4024fc:	b8 ff ff ff ff       	mov    $0xffffffff,%eax
  402501:	48 8b 74 24 08       	mov    0x8(%rsp),%rsi
  402506:	64 48 33 34 25 28 00 	xor    %fs:0x28,%rsi
  40250d:	00 00 
  40250f:	74 05                	je     402516 <urlencode+0x104>
  402511:	e8 da e7 ff ff       	callq  400cf0 <__stack_chk_fail@plt>
  402516:	48 83 c4 10          	add    $0x10,%rsp
  40251a:	5b                   	pop    %rbx
  40251b:	5d                   	pop    %rbp
  40251c:	41 5c                	pop    %r12
  40251e:	c3                   	retq   

000000000040251f <submitr>:
  40251f:	41 57                	push   %r15
  402521:	41 56                	push   %r14
  402523:	41 55                	push   %r13
  402525:	41 54                	push   %r12
  402527:	55                   	push   %rbp
  402528:	53                   	push   %rbx
  402529:	48 81 ec 58 a0 00 00 	sub    $0xa058,%rsp
  402530:	49 89 fc             	mov    %rdi,%r12
  402533:	89 74 24 04          	mov    %esi,0x4(%rsp)
  402537:	49 89 d7             	mov    %rdx,%r15
  40253a:	49 89 ce             	mov    %rcx,%r14
  40253d:	4c 89 44 24 08       	mov    %r8,0x8(%rsp)
  402542:	4d 89 cd             	mov    %r9,%r13
  402545:	48 8b 9c 24 90 a0 00 	mov    0xa090(%rsp),%rbx
  40254c:	00 
  40254d:	64 48 8b 04 25 28 00 	mov    %fs:0x28,%rax
  402554:	00 00 
  402556:	48 89 84 24 48 a0 00 	mov    %rax,0xa048(%rsp)
  40255d:	00 
  40255e:	31 c0                	xor    %eax,%eax
  402560:	c7 44 24 1c 00 00 00 	movl   $0x0,0x1c(%rsp)
  402567:	00 
  402568:	ba 00 00 00 00       	mov    $0x0,%edx
  40256d:	be 01 00 00 00       	mov    $0x1,%esi
  402572:	bf 02 00 00 00       	mov    $0x2,%edi
  402577:	e8 14 e9 ff ff       	callq  400e90 <socket@plt>
  40257c:	85 c0                	test   %eax,%eax
  40257e:	79 4e                	jns    4025ce <submitr+0xaf>
  402580:	48 b8 45 72 72 6f 72 	movabs $0x43203a726f727245,%rax
  402587:	3a 20 43 
  40258a:	48 89 03             	mov    %rax,(%rbx)
  40258d:	48 b8 6c 69 65 6e 74 	movabs $0x6e7520746e65696c,%rax
  402594:	20 75 6e 
  402597:	48 89 43 08          	mov    %rax,0x8(%rbx)
  40259b:	48 b8 61 62 6c 65 20 	movabs $0x206f7420656c6261,%rax
  4025a2:	74 6f 20 
  4025a5:	48 89 43 10          	mov    %rax,0x10(%rbx)
  4025a9:	48 b8 63 72 65 61 74 	movabs $0x7320657461657263,%rax
  4025b0:	65 20 73 
  4025b3:	48 89 43 18          	mov    %rax,0x18(%rbx)
  4025b7:	c7 43 20 6f 63 6b 65 	movl   $0x656b636f,0x20(%rbx)
  4025be:	66 c7 43 24 74 00    	movw   $0x74,0x24(%rbx)
  4025c4:	b8 ff ff ff ff       	mov    $0xffffffff,%eax
  4025c9:	e9 97 06 00 00       	jmpq   402c65 <submitr+0x746>
  4025ce:	89 c5                	mov    %eax,%ebp
  4025d0:	4c 89 e7             	mov    %r12,%rdi
  4025d3:	e8 98 e7 ff ff       	callq  400d70 <gethostbyname@plt>
  4025d8:	48 85 c0             	test   %rax,%rax
  4025db:	75 67                	jne    402644 <submitr+0x125>
  4025dd:	48 b8 45 72 72 6f 72 	movabs $0x44203a726f727245,%rax
  4025e4:	3a 20 44 
  4025e7:	48 89 03             	mov    %rax,(%rbx)
  4025ea:	48 b8 4e 53 20 69 73 	movabs $0x6e7520736920534e,%rax
  4025f1:	20 75 6e 
  4025f4:	48 89 43 08          	mov    %rax,0x8(%rbx)
  4025f8:	48 b8 61 62 6c 65 20 	movabs $0x206f7420656c6261,%rax
  4025ff:	74 6f 20 
  402602:	48 89 43 10          	mov    %rax,0x10(%rbx)
  402606:	48 b8 72 65 73 6f 6c 	movabs $0x2065766c6f736572,%rax
  40260d:	76 65 20 
  402610:	48 89 43 18          	mov    %rax,0x18(%rbx)
  402614:	48 b8 73 65 72 76 65 	movabs $0x6120726576726573,%rax
  40261b:	72 20 61 
  40261e:	48 89 43 20          	mov    %rax,0x20(%rbx)
  402622:	c7 43 28 64 64 72 65 	movl   $0x65726464,0x28(%rbx)
  402629:	66 c7 43 2c 73 73    	movw   $0x7373,0x2c(%rbx)
  40262f:	c6 43 2e 00          	movb   $0x0,0x2e(%rbx)
  402633:	89 ef                	mov    %ebp,%edi
  402635:	e8 f6 e6 ff ff       	callq  400d30 <close@plt>
  40263a:	b8 ff ff ff ff       	mov    $0xffffffff,%eax
  40263f:	e9 21 06 00 00       	jmpq   402c65 <submitr+0x746>
  402644:	48 c7 44 24 20 00 00 	movq   $0x0,0x20(%rsp)
  40264b:	00 00 
  40264d:	48 c7 44 24 28 00 00 	movq   $0x0,0x28(%rsp)
  402654:	00 00 
  402656:	66 c7 44 24 20 02 00 	movw   $0x2,0x20(%rsp)
  40265d:	48 63 50 14          	movslq 0x14(%rax),%rdx
  402661:	48 8b 40 18          	mov    0x18(%rax),%rax
  402665:	48 8b 30             	mov    (%rax),%rsi
  402668:	48 8d 7c 24 24       	lea    0x24(%rsp),%rdi
  40266d:	b9 0c 00 00 00       	mov    $0xc,%ecx
  402672:	e8 09 e7 ff ff       	callq  400d80 <__memmove_chk@plt>
  402677:	0f b7 44 24 04       	movzwl 0x4(%rsp),%eax
  40267c:	66 c1 c8 08          	ror    $0x8,%ax
  402680:	66 89 44 24 22       	mov    %ax,0x22(%rsp)
  402685:	ba 10 00 00 00       	mov    $0x10,%edx
  40268a:	48 8d 74 24 20       	lea    0x20(%rsp),%rsi
  40268f:	89 ef                	mov    %ebp,%edi
  402691:	e8 ca e7 ff ff       	callq  400e60 <connect@plt>
  402696:	85 c0                	test   %eax,%eax
  402698:	79 59                	jns    4026f3 <submitr+0x1d4>
  40269a:	48 b8 45 72 72 6f 72 	movabs $0x55203a726f727245,%rax
  4026a1:	3a 20 55 
  4026a4:	48 89 03             	mov    %rax,(%rbx)
  4026a7:	48 b8 6e 61 62 6c 65 	movabs $0x6f7420656c62616e,%rax
  4026ae:	20 74 6f 
  4026b1:	48 89 43 08          	mov    %rax,0x8(%rbx)
  4026b5:	48 b8 20 63 6f 6e 6e 	movabs $0x7463656e6e6f6320,%rax
  4026bc:	65 63 74 
  4026bf:	48 89 43 10          	mov    %rax,0x10(%rbx)
  4026c3:	48 b8 20 74 6f 20 74 	movabs $0x20656874206f7420,%rax
  4026ca:	68 65 20 
  4026cd:	48 89 43 18          	mov    %rax,0x18(%rbx)
  4026d1:	c7 43 20 73 65 72 76 	movl   $0x76726573,0x20(%rbx)
  4026d8:	66 c7 43 24 65 72    	movw   $0x7265,0x24(%rbx)
  4026de:	c6 43 26 00          	movb   $0x0,0x26(%rbx)
  4026e2:	89 ef                	mov    %ebp,%edi
  4026e4:	e8 47 e6 ff ff       	callq  400d30 <close@plt>
  4026e9:	b8 ff ff ff ff       	mov    $0xffffffff,%eax
  4026ee:	e9 72 05 00 00       	jmpq   402c65 <submitr+0x746>
  4026f3:	48 c7 c6 ff ff ff ff 	mov    $0xffffffffffffffff,%rsi
  4026fa:	b8 00 00 00 00       	mov    $0x0,%eax
  4026ff:	48 89 f1             	mov    %rsi,%rcx
  402702:	4c 89 ef             	mov    %r13,%rdi
  402705:	f2 ae                	repnz scas %es:(%rdi),%al
  402707:	48 f7 d1             	not    %rcx
  40270a:	48 89 ca             	mov    %rcx,%rdx
  40270d:	48 89 f1             	mov    %rsi,%rcx
  402710:	4c 89 ff             	mov    %r15,%rdi
  402713:	f2 ae                	repnz scas %es:(%rdi),%al
  402715:	48 f7 d1             	not    %rcx
  402718:	49 89 c8             	mov    %rcx,%r8
  40271b:	48 89 f1             	mov    %rsi,%rcx
  40271e:	4c 89 f7             	mov    %r14,%rdi
  402721:	f2 ae                	repnz scas %es:(%rdi),%al
  402723:	48 f7 d1             	not    %rcx
  402726:	4d 8d 44 08 fe       	lea    -0x2(%r8,%rcx,1),%r8
  40272b:	48 89 f1             	mov    %rsi,%rcx
  40272e:	48 8b 7c 24 08       	mov    0x8(%rsp),%rdi
  402733:	f2 ae                	repnz scas %es:(%rdi),%al
  402735:	48 89 c8             	mov    %rcx,%rax
  402738:	48 f7 d0             	not    %rax
  40273b:	49 8d 4c 00 ff       	lea    -0x1(%r8,%rax,1),%rcx
  402740:	48 8d 44 52 fd       	lea    -0x3(%rdx,%rdx,2),%rax
  402745:	48 8d 84 01 80 00 00 	lea    0x80(%rcx,%rax,1),%rax
  40274c:	00 
  40274d:	48 3d 00 20 00 00    	cmp    $0x2000,%rax
  402753:	76 72                	jbe    4027c7 <submitr+0x2a8>
  402755:	48 b8 45 72 72 6f 72 	movabs $0x52203a726f727245,%rax
  40275c:	3a 20 52 
  40275f:	48 89 03             	mov    %rax,(%rbx)
  402762:	48 b8 65 73 75 6c 74 	movabs $0x747320746c757365,%rax
  402769:	20 73 74 
  40276c:	48 89 43 08          	mov    %rax,0x8(%rbx)
  402770:	48 b8 72 69 6e 67 20 	movabs $0x6f6f7420676e6972,%rax
  402777:	74 6f 6f 
  40277a:	48 89 43 10          	mov    %rax,0x10(%rbx)
  40277e:	48 b8 20 6c 61 72 67 	movabs $0x202e656772616c20,%rax
  402785:	65 2e 20 
  402788:	48 89 43 18          	mov    %rax,0x18(%rbx)
  40278c:	48 b8 49 6e 63 72 65 	movabs $0x6573616572636e49,%rax
  402793:	61 73 65 
  402796:	48 89 43 20          	mov    %rax,0x20(%rbx)
  40279a:	48 b8 20 53 55 42 4d 	movabs $0x5254494d42555320,%rax
  4027a1:	49 54 52 
  4027a4:	48 89 43 28          	mov    %rax,0x28(%rbx)
  4027a8:	48 b8 5f 4d 41 58 42 	movabs $0x46554258414d5f,%rax
  4027af:	55 46 00 
  4027b2:	48 89 43 30          	mov    %rax,0x30(%rbx)
  4027b6:	89 ef                	mov    %ebp,%edi
  4027b8:	e8 73 e5 ff ff       	callq  400d30 <close@plt>
  4027bd:	b8 ff ff ff ff       	mov    $0xffffffff,%eax
  4027c2:	e9 9e 04 00 00       	jmpq   402c65 <submitr+0x746>
  4027c7:	48 8d b4 24 40 40 00 	lea    0x4040(%rsp),%rsi
  4027ce:	00 
  4027cf:	b9 00 04 00 00       	mov    $0x400,%ecx
  4027d4:	b8 00 00 00 00       	mov    $0x0,%eax
  4027d9:	48 89 f7             	mov    %rsi,%rdi
  4027dc:	f3 48 ab             	rep stos %rax,%es:(%rdi)
  4027df:	4c 89 ef             	mov    %r13,%rdi
  4027e2:	e8 2b fc ff ff       	callq  402412 <urlencode>
  4027e7:	85 c0                	test   %eax,%eax
  4027e9:	0f 89 8a 00 00 00    	jns    402879 <submitr+0x35a>
  4027ef:	48 b8 45 72 72 6f 72 	movabs $0x52203a726f727245,%rax
  4027f6:	3a 20 52 
  4027f9:	48 89 03             	mov    %rax,(%rbx)
  4027fc:	48 b8 65 73 75 6c 74 	movabs $0x747320746c757365,%rax
  402803:	20 73 74 
  402806:	48 89 43 08          	mov    %rax,0x8(%rbx)
  40280a:	48 b8 72 69 6e 67 20 	movabs $0x6e6f6320676e6972,%rax
  402811:	63 6f 6e 
  402814:	48 89 43 10          	mov    %rax,0x10(%rbx)
  402818:	48 b8 74 61 69 6e 73 	movabs $0x6e6120736e696174,%rax
  40281f:	20 61 6e 
  402822:	48 89 43 18          	mov    %rax,0x18(%rbx)
  402826:	48 b8 20 69 6c 6c 65 	movabs $0x6c6167656c6c6920,%rax
  40282d:	67 61 6c 
  402830:	48 89 43 20          	mov    %rax,0x20(%rbx)
  402834:	48 b8 20 6f 72 20 75 	movabs $0x72706e7520726f20,%rax
  40283b:	6e 70 72 
  40283e:	48 89 43 28          	mov    %rax,0x28(%rbx)
  402842:	48 b8 69 6e 74 61 62 	movabs $0x20656c6261746e69,%rax
  402849:	6c 65 20 
  40284c:	48 89 43 30          	mov    %rax,0x30(%rbx)
  402850:	48 b8 63 68 61 72 61 	movabs $0x6574636172616863,%rax
  402857:	63 74 65 
  40285a:	48 89 43 38          	mov    %rax,0x38(%rbx)
  40285e:	66 c7 43 40 72 2e    	movw   $0x2e72,0x40(%rbx)
  402864:	c6 43 42 00          	movb   $0x0,0x42(%rbx)
  402868:	89 ef                	mov    %ebp,%edi
  40286a:	e8 c1 e4 ff ff       	callq  400d30 <close@plt>
  40286f:	b8 ff ff ff ff       	mov    $0xffffffff,%eax
  402874:	e9 ec 03 00 00       	jmpq   402c65 <submitr+0x746>
  402879:	4c 8d ac 24 40 20 00 	lea    0x2040(%rsp),%r13
  402880:	00 
  402881:	41 54                	push   %r12
  402883:	48 8d 84 24 48 40 00 	lea    0x4048(%rsp),%rax
  40288a:	00 
  40288b:	50                   	push   %rax
  40288c:	4d 89 f9             	mov    %r15,%r9
  40288f:	4d 89 f0             	mov    %r14,%r8
  402892:	b9 d8 38 40 00       	mov    $0x4038d8,%ecx
  402897:	ba 00 20 00 00       	mov    $0x2000,%edx
  40289c:	be 01 00 00 00       	mov    $0x1,%esi
  4028a1:	4c 89 ef             	mov    %r13,%rdi
  4028a4:	b8 00 00 00 00       	mov    $0x0,%eax
  4028a9:	e8 d2 e5 ff ff       	callq  400e80 <__sprintf_chk@plt>
  4028ae:	b8 00 00 00 00       	mov    $0x0,%eax
  4028b3:	48 c7 c1 ff ff ff ff 	mov    $0xffffffffffffffff,%rcx
  4028ba:	4c 89 ef             	mov    %r13,%rdi
  4028bd:	f2 ae                	repnz scas %es:(%rdi),%al
  4028bf:	48 f7 d1             	not    %rcx
  4028c2:	48 8d 51 ff          	lea    -0x1(%rcx),%rdx
  4028c6:	4c 89 ee             	mov    %r13,%rsi
  4028c9:	89 ef                	mov    %ebp,%edi
  4028cb:	e8 b1 f9 ff ff       	callq  402281 <rio_writen>
  4028d0:	48 83 c4 10          	add    $0x10,%rsp
  4028d4:	48 85 c0             	test   %rax,%rax
  4028d7:	79 6e                	jns    402947 <submitr+0x428>
  4028d9:	48 b8 45 72 72 6f 72 	movabs $0x43203a726f727245,%rax
  4028e0:	3a 20 43 
  4028e3:	48 89 03             	mov    %rax,(%rbx)
  4028e6:	48 b8 6c 69 65 6e 74 	movabs $0x6e7520746e65696c,%rax
  4028ed:	20 75 6e 
  4028f0:	48 89 43 08          	mov    %rax,0x8(%rbx)
  4028f4:	48 b8 61 62 6c 65 20 	movabs $0x206f7420656c6261,%rax
  4028fb:	74 6f 20 
  4028fe:	48 89 43 10          	mov    %rax,0x10(%rbx)
  402902:	48 b8 77 72 69 74 65 	movabs $0x6f74206574697277,%rax
  402909:	20 74 6f 
  40290c:	48 89 43 18          	mov    %rax,0x18(%rbx)
  402910:	48 b8 20 74 68 65 20 	movabs $0x7365722065687420,%rax
  402917:	72 65 73 
  40291a:	48 89 43 20          	mov    %rax,0x20(%rbx)
  40291e:	48 b8 75 6c 74 20 73 	movabs $0x7672657320746c75,%rax
  402925:	65 72 76 
  402928:	48 89 43 28          	mov    %rax,0x28(%rbx)
  40292c:	66 c7 43 30 65 72    	movw   $0x7265,0x30(%rbx)
  402932:	c6 43 32 00          	movb   $0x0,0x32(%rbx)
  402936:	89 ef                	mov    %ebp,%edi
  402938:	e8 f3 e3 ff ff       	callq  400d30 <close@plt>
  40293d:	b8 ff ff ff ff       	mov    $0xffffffff,%eax
  402942:	e9 1e 03 00 00       	jmpq   402c65 <submitr+0x746>
  402947:	89 ee                	mov    %ebp,%esi
  402949:	48 8d 7c 24 30       	lea    0x30(%rsp),%rdi
  40294e:	e8 ee f8 ff ff       	callq  402241 <rio_readinitb>
  402953:	ba 00 20 00 00       	mov    $0x2000,%edx
  402958:	48 8d b4 24 40 20 00 	lea    0x2040(%rsp),%rsi
  40295f:	00 
  402960:	48 8d 7c 24 30       	lea    0x30(%rsp),%rdi
  402965:	e8 fe f9 ff ff       	callq  402368 <rio_readlineb>
  40296a:	48 85 c0             	test   %rax,%rax
  40296d:	7f 7d                	jg     4029ec <submitr+0x4cd>
  40296f:	48 b8 45 72 72 6f 72 	movabs $0x43203a726f727245,%rax
  402976:	3a 20 43 
  402979:	48 89 03             	mov    %rax,(%rbx)
  40297c:	48 b8 6c 69 65 6e 74 	movabs $0x6e7520746e65696c,%rax
  402983:	20 75 6e 
  402986:	48 89 43 08          	mov    %rax,0x8(%rbx)
  40298a:	48 b8 61 62 6c 65 20 	movabs $0x206f7420656c6261,%rax
  402991:	74 6f 20 
  402994:	48 89 43 10          	mov    %rax,0x10(%rbx)
  402998:	48 b8 72 65 61 64 20 	movabs $0x7269662064616572,%rax
  40299f:	66 69 72 
  4029a2:	48 89 43 18          	mov    %rax,0x18(%rbx)
  4029a6:	48 b8 73 74 20 68 65 	movabs $0x6564616568207473,%rax
  4029ad:	61 64 65 
  4029b0:	48 89 43 20          	mov    %rax,0x20(%rbx)
  4029b4:	48 b8 72 20 66 72 6f 	movabs $0x72206d6f72662072,%rax
  4029bb:	6d 20 72 
  4029be:	48 89 43 28          	mov    %rax,0x28(%rbx)
  4029c2:	48 b8 65 73 75 6c 74 	movabs $0x657320746c757365,%rax
  4029c9:	20 73 65 
  4029cc:	48 89 43 30          	mov    %rax,0x30(%rbx)
  4029d0:	c7 43 38 72 76 65 72 	movl   $0x72657672,0x38(%rbx)
  4029d7:	c6 43 3c 00          	movb   $0x0,0x3c(%rbx)
  4029db:	89 ef                	mov    %ebp,%edi
  4029dd:	e8 4e e3 ff ff       	callq  400d30 <close@plt>
  4029e2:	b8 ff ff ff ff       	mov    $0xffffffff,%eax
  4029e7:	e9 79 02 00 00       	jmpq   402c65 <submitr+0x746>
  4029ec:	4c 8d 84 24 40 80 00 	lea    0x8040(%rsp),%r8
  4029f3:	00 
  4029f4:	48 8d 4c 24 1c       	lea    0x1c(%rsp),%rcx
  4029f9:	48 8d 94 24 40 60 00 	lea    0x6040(%rsp),%rdx
  402a00:	00 
  402a01:	be 4f 39 40 00       	mov    $0x40394f,%esi
  402a06:	48 8d bc 24 40 20 00 	lea    0x2040(%rsp),%rdi
  402a0d:	00 
  402a0e:	b8 00 00 00 00       	mov    $0x0,%eax
  402a13:	e8 c8 e3 ff ff       	callq  400de0 <__isoc99_sscanf@plt>
  402a18:	e9 95 00 00 00       	jmpq   402ab2 <submitr+0x593>
  402a1d:	ba 00 20 00 00       	mov    $0x2000,%edx
  402a22:	48 8d b4 24 40 20 00 	lea    0x2040(%rsp),%rsi
  402a29:	00 
  402a2a:	48 8d 7c 24 30       	lea    0x30(%rsp),%rdi
  402a2f:	e8 34 f9 ff ff       	callq  402368 <rio_readlineb>
  402a34:	48 85 c0             	test   %rax,%rax
  402a37:	7f 79                	jg     402ab2 <submitr+0x593>
  402a39:	48 b8 45 72 72 6f 72 	movabs $0x43203a726f727245,%rax
  402a40:	3a 20 43 
  402a43:	48 89 03             	mov    %rax,(%rbx)
  402a46:	48 b8 6c 69 65 6e 74 	movabs $0x6e7520746e65696c,%rax
  402a4d:	20 75 6e 
  402a50:	48 89 43 08          	mov    %rax,0x8(%rbx)
  402a54:	48 b8 61 62 6c 65 20 	movabs $0x206f7420656c6261,%rax
  402a5b:	74 6f 20 
  402a5e:	48 89 43 10          	mov    %rax,0x10(%rbx)
  402a62:	48 b8 72 65 61 64 20 	movabs $0x6165682064616572,%rax
  402a69:	68 65 61 
  402a6c:	48 89 43 18          	mov    %rax,0x18(%rbx)
  402a70:	48 b8 64 65 72 73 20 	movabs $0x6f72662073726564,%rax
  402a77:	66 72 6f 
  402a7a:	48 89 43 20          	mov    %rax,0x20(%rbx)
  402a7e:	48 b8 6d 20 74 68 65 	movabs $0x657220656874206d,%rax
  402a85:	20 72 65 
  402a88:	48 89 43 28          	mov    %rax,0x28(%rbx)
  402a8c:	48 b8 73 75 6c 74 20 	movabs $0x72657320746c7573,%rax
  402a93:	73 65 72 
  402a96:	48 89 43 30          	mov    %rax,0x30(%rbx)
  402a9a:	c7 43 38 76 65 72 00 	movl   $0x726576,0x38(%rbx)
  402aa1:	89 ef                	mov    %ebp,%edi
  402aa3:	e8 88 e2 ff ff       	callq  400d30 <close@plt>
  402aa8:	b8 ff ff ff ff       	mov    $0xffffffff,%eax
  402aad:	e9 b3 01 00 00       	jmpq   402c65 <submitr+0x746>
  402ab2:	0f b6 94 24 40 20 00 	movzbl 0x2040(%rsp),%edx
  402ab9:	00 
  402aba:	b8 0d 00 00 00       	mov    $0xd,%eax
  402abf:	29 d0                	sub    %edx,%eax
  402ac1:	75 1b                	jne    402ade <submitr+0x5bf>
  402ac3:	0f b6 94 24 41 20 00 	movzbl 0x2041(%rsp),%edx
  402aca:	00 
  402acb:	b8 0a 00 00 00       	mov    $0xa,%eax
  402ad0:	29 d0                	sub    %edx,%eax
  402ad2:	75 0a                	jne    402ade <submitr+0x5bf>
  402ad4:	0f b6 84 24 42 20 00 	movzbl 0x2042(%rsp),%eax
  402adb:	00 
  402adc:	f7 d8                	neg    %eax
  402ade:	85 c0                	test   %eax,%eax
  402ae0:	0f 85 37 ff ff ff    	jne    402a1d <submitr+0x4fe>
  402ae6:	ba 00 20 00 00       	mov    $0x2000,%edx
  402aeb:	48 8d b4 24 40 20 00 	lea    0x2040(%rsp),%rsi
  402af2:	00 
  402af3:	48 8d 7c 24 30       	lea    0x30(%rsp),%rdi
  402af8:	e8 6b f8 ff ff       	callq  402368 <rio_readlineb>
  402afd:	48 85 c0             	test   %rax,%rax
  402b00:	0f 8f 83 00 00 00    	jg     402b89 <submitr+0x66a>
  402b06:	48 b8 45 72 72 6f 72 	movabs $0x43203a726f727245,%rax
  402b0d:	3a 20 43 
  402b10:	48 89 03             	mov    %rax,(%rbx)
  402b13:	48 b8 6c 69 65 6e 74 	movabs $0x6e7520746e65696c,%rax
  402b1a:	20 75 6e 
  402b1d:	48 89 43 08          	mov    %rax,0x8(%rbx)
  402b21:	48 b8 61 62 6c 65 20 	movabs $0x206f7420656c6261,%rax
  402b28:	74 6f 20 
  402b2b:	48 89 43 10          	mov    %rax,0x10(%rbx)
  402b2f:	48 b8 72 65 61 64 20 	movabs $0x6174732064616572,%rax
  402b36:	73 74 61 
  402b39:	48 89 43 18          	mov    %rax,0x18(%rbx)
  402b3d:	48 b8 74 75 73 20 6d 	movabs $0x7373656d20737574,%rax
  402b44:	65 73 73 
  402b47:	48 89 43 20          	mov    %rax,0x20(%rbx)
  402b4b:	48 b8 61 67 65 20 66 	movabs $0x6d6f726620656761,%rax
  402b52:	72 6f 6d 
  402b55:	48 89 43 28          	mov    %rax,0x28(%rbx)
  402b59:	48 b8 20 72 65 73 75 	movabs $0x20746c7573657220,%rax
  402b60:	6c 74 20 
  402b63:	48 89 43 30          	mov    %rax,0x30(%rbx)
  402b67:	c7 43 38 73 65 72 76 	movl   $0x76726573,0x38(%rbx)
  402b6e:	66 c7 43 3c 65 72    	movw   $0x7265,0x3c(%rbx)
  402b74:	c6 43 3e 00          	movb   $0x0,0x3e(%rbx)
  402b78:	89 ef                	mov    %ebp,%edi
  402b7a:	e8 b1 e1 ff ff       	callq  400d30 <close@plt>
  402b7f:	b8 ff ff ff ff       	mov    $0xffffffff,%eax
  402b84:	e9 dc 00 00 00       	jmpq   402c65 <submitr+0x746>
  402b89:	44 8b 44 24 1c       	mov    0x1c(%rsp),%r8d
  402b8e:	41 81 f8 c8 00 00 00 	cmp    $0xc8,%r8d
  402b95:	74 37                	je     402bce <submitr+0x6af>
  402b97:	4c 8d 8c 24 40 80 00 	lea    0x8040(%rsp),%r9
  402b9e:	00 
  402b9f:	b9 18 39 40 00       	mov    $0x403918,%ecx
  402ba4:	48 c7 c2 ff ff ff ff 	mov    $0xffffffffffffffff,%rdx
  402bab:	be 01 00 00 00       	mov    $0x1,%esi
  402bb0:	48 89 df             	mov    %rbx,%rdi
  402bb3:	b8 00 00 00 00       	mov    $0x0,%eax
  402bb8:	e8 c3 e2 ff ff       	callq  400e80 <__sprintf_chk@plt>
  402bbd:	89 ef                	mov    %ebp,%edi
  402bbf:	e8 6c e1 ff ff       	callq  400d30 <close@plt>
  402bc4:	b8 ff ff ff ff       	mov    $0xffffffff,%eax
  402bc9:	e9 97 00 00 00       	jmpq   402c65 <submitr+0x746>
  402bce:	48 8d b4 24 40 20 00 	lea    0x2040(%rsp),%rsi
  402bd5:	00 
  402bd6:	48 89 df             	mov    %rbx,%rdi
  402bd9:	e8 e2 e0 ff ff       	callq  400cc0 <strcpy@plt>
  402bde:	89 ef                	mov    %ebp,%edi
  402be0:	e8 4b e1 ff ff       	callq  400d30 <close@plt>
  402be5:	0f b6 03             	movzbl (%rbx),%eax
  402be8:	ba 4f 00 00 00       	mov    $0x4f,%edx
  402bed:	29 c2                	sub    %eax,%edx
  402bef:	75 22                	jne    402c13 <submitr+0x6f4>
  402bf1:	0f b6 4b 01          	movzbl 0x1(%rbx),%ecx
  402bf5:	b8 4b 00 00 00       	mov    $0x4b,%eax
  402bfa:	29 c8                	sub    %ecx,%eax
  402bfc:	75 17                	jne    402c15 <submitr+0x6f6>
  402bfe:	0f b6 4b 02          	movzbl 0x2(%rbx),%ecx
  402c02:	b8 0a 00 00 00       	mov    $0xa,%eax
  402c07:	29 c8                	sub    %ecx,%eax
  402c09:	75 0a                	jne    402c15 <submitr+0x6f6>
  402c0b:	0f b6 43 03          	movzbl 0x3(%rbx),%eax
  402c0f:	f7 d8                	neg    %eax
  402c11:	eb 02                	jmp    402c15 <submitr+0x6f6>
  402c13:	89 d0                	mov    %edx,%eax
  402c15:	85 c0                	test   %eax,%eax
  402c17:	74 40                	je     402c59 <submitr+0x73a>
  402c19:	bf 60 39 40 00       	mov    $0x403960,%edi
  402c1e:	b9 05 00 00 00       	mov    $0x5,%ecx
  402c23:	48 89 de             	mov    %rbx,%rsi
  402c26:	f3 a6                	repz cmpsb %es:(%rdi),%ds:(%rsi)
  402c28:	0f 97 c0             	seta   %al
  402c2b:	0f 92 c1             	setb   %cl
  402c2e:	29 c8                	sub    %ecx,%eax
  402c30:	0f be c0             	movsbl %al,%eax
  402c33:	85 c0                	test   %eax,%eax
  402c35:	74 2e                	je     402c65 <submitr+0x746>
  402c37:	85 d2                	test   %edx,%edx
  402c39:	75 13                	jne    402c4e <submitr+0x72f>
  402c3b:	0f b6 43 01          	movzbl 0x1(%rbx),%eax
  402c3f:	ba 4b 00 00 00       	mov    $0x4b,%edx
  402c44:	29 c2                	sub    %eax,%edx
  402c46:	75 06                	jne    402c4e <submitr+0x72f>
  402c48:	0f b6 53 02          	movzbl 0x2(%rbx),%edx
  402c4c:	f7 da                	neg    %edx
  402c4e:	85 d2                	test   %edx,%edx
  402c50:	75 0e                	jne    402c60 <submitr+0x741>
  402c52:	b8 00 00 00 00       	mov    $0x0,%eax
  402c57:	eb 0c                	jmp    402c65 <submitr+0x746>
  402c59:	b8 00 00 00 00       	mov    $0x0,%eax
  402c5e:	eb 05                	jmp    402c65 <submitr+0x746>
  402c60:	b8 ff ff ff ff       	mov    $0xffffffff,%eax
  402c65:	48 8b 9c 24 48 a0 00 	mov    0xa048(%rsp),%rbx
  402c6c:	00 
  402c6d:	64 48 33 1c 25 28 00 	xor    %fs:0x28,%rbx
  402c74:	00 00 
  402c76:	74 05                	je     402c7d <submitr+0x75e>
  402c78:	e8 73 e0 ff ff       	callq  400cf0 <__stack_chk_fail@plt>
  402c7d:	48 81 c4 58 a0 00 00 	add    $0xa058,%rsp
  402c84:	5b                   	pop    %rbx
  402c85:	5d                   	pop    %rbp
  402c86:	41 5c                	pop    %r12
  402c88:	41 5d                	pop    %r13
  402c8a:	41 5e                	pop    %r14
  402c8c:	41 5f                	pop    %r15
  402c8e:	c3                   	retq   

0000000000402c8f <init_timeout>:
  402c8f:	85 ff                	test   %edi,%edi
  402c91:	74 23                	je     402cb6 <init_timeout+0x27>
  402c93:	53                   	push   %rbx
  402c94:	89 fb                	mov    %edi,%ebx
  402c96:	85 ff                	test   %edi,%edi
  402c98:	79 05                	jns    402c9f <init_timeout+0x10>
  402c9a:	bb 00 00 00 00       	mov    $0x0,%ebx
  402c9f:	be 53 22 40 00       	mov    $0x402253,%esi
  402ca4:	bf 0e 00 00 00       	mov    $0xe,%edi
  402ca9:	e8 b2 e0 ff ff       	callq  400d60 <signal@plt>
  402cae:	89 df                	mov    %ebx,%edi
  402cb0:	e8 6b e0 ff ff       	callq  400d20 <alarm@plt>
  402cb5:	5b                   	pop    %rbx
  402cb6:	f3 c3                	repz retq 

0000000000402cb8 <init_driver>:
  402cb8:	55                   	push   %rbp
  402cb9:	53                   	push   %rbx
  402cba:	48 83 ec 28          	sub    $0x28,%rsp
  402cbe:	48 89 fd             	mov    %rdi,%rbp
  402cc1:	64 48 8b 04 25 28 00 	mov    %fs:0x28,%rax
  402cc8:	00 00 
  402cca:	48 89 44 24 18       	mov    %rax,0x18(%rsp)
  402ccf:	31 c0                	xor    %eax,%eax
  402cd1:	be 01 00 00 00       	mov    $0x1,%esi
  402cd6:	bf 0d 00 00 00       	mov    $0xd,%edi
  402cdb:	e8 80 e0 ff ff       	callq  400d60 <signal@plt>
  402ce0:	be 01 00 00 00       	mov    $0x1,%esi
  402ce5:	bf 1d 00 00 00       	mov    $0x1d,%edi
  402cea:	e8 71 e0 ff ff       	callq  400d60 <signal@plt>
  402cef:	be 01 00 00 00       	mov    $0x1,%esi
  402cf4:	bf 1d 00 00 00       	mov    $0x1d,%edi
  402cf9:	e8 62 e0 ff ff       	callq  400d60 <signal@plt>
  402cfe:	ba 00 00 00 00       	mov    $0x0,%edx
  402d03:	be 01 00 00 00       	mov    $0x1,%esi
  402d08:	bf 02 00 00 00       	mov    $0x2,%edi
  402d0d:	e8 7e e1 ff ff       	callq  400e90 <socket@plt>
  402d12:	85 c0                	test   %eax,%eax
  402d14:	79 4f                	jns    402d65 <init_driver+0xad>
  402d16:	48 b8 45 72 72 6f 72 	movabs $0x43203a726f727245,%rax
  402d1d:	3a 20 43 
  402d20:	48 89 45 00          	mov    %rax,0x0(%rbp)
  402d24:	48 b8 6c 69 65 6e 74 	movabs $0x6e7520746e65696c,%rax
  402d2b:	20 75 6e 
  402d2e:	48 89 45 08          	mov    %rax,0x8(%rbp)
  402d32:	48 b8 61 62 6c 65 20 	movabs $0x206f7420656c6261,%rax
  402d39:	74 6f 20 
  402d3c:	48 89 45 10          	mov    %rax,0x10(%rbp)
  402d40:	48 b8 63 72 65 61 74 	movabs $0x7320657461657263,%rax
  402d47:	65 20 73 
  402d4a:	48 89 45 18          	mov    %rax,0x18(%rbp)
  402d4e:	c7 45 20 6f 63 6b 65 	movl   $0x656b636f,0x20(%rbp)
  402d55:	66 c7 45 24 74 00    	movw   $0x74,0x24(%rbp)
  402d5b:	b8 ff ff ff ff       	mov    $0xffffffff,%eax
  402d60:	e9 2a 01 00 00       	jmpq   402e8f <init_driver+0x1d7>
  402d65:	89 c3                	mov    %eax,%ebx
  402d67:	bf 65 39 40 00       	mov    $0x403965,%edi
  402d6c:	e8 ff df ff ff       	callq  400d70 <gethostbyname@plt>
  402d71:	48 85 c0             	test   %rax,%rax
  402d74:	75 68                	jne    402dde <init_driver+0x126>
  402d76:	48 b8 45 72 72 6f 72 	movabs $0x44203a726f727245,%rax
  402d7d:	3a 20 44 
  402d80:	48 89 45 00          	mov    %rax,0x0(%rbp)
  402d84:	48 b8 4e 53 20 69 73 	movabs $0x6e7520736920534e,%rax
  402d8b:	20 75 6e 
  402d8e:	48 89 45 08          	mov    %rax,0x8(%rbp)
  402d92:	48 b8 61 62 6c 65 20 	movabs $0x206f7420656c6261,%rax
  402d99:	74 6f 20 
  402d9c:	48 89 45 10          	mov    %rax,0x10(%rbp)
  402da0:	48 b8 72 65 73 6f 6c 	movabs $0x2065766c6f736572,%rax
  402da7:	76 65 20 
  402daa:	48 89 45 18          	mov    %rax,0x18(%rbp)
  402dae:	48 b8 73 65 72 76 65 	movabs $0x6120726576726573,%rax
  402db5:	72 20 61 
  402db8:	48 89 45 20          	mov    %rax,0x20(%rbp)
  402dbc:	c7 45 28 64 64 72 65 	movl   $0x65726464,0x28(%rbp)
  402dc3:	66 c7 45 2c 73 73    	movw   $0x7373,0x2c(%rbp)
  402dc9:	c6 45 2e 00          	movb   $0x0,0x2e(%rbp)
  402dcd:	89 df                	mov    %ebx,%edi
  402dcf:	e8 5c df ff ff       	callq  400d30 <close@plt>
  402dd4:	b8 ff ff ff ff       	mov    $0xffffffff,%eax
  402dd9:	e9 b1 00 00 00       	jmpq   402e8f <init_driver+0x1d7>
  402dde:	48 c7 04 24 00 00 00 	movq   $0x0,(%rsp)
  402de5:	00 
  402de6:	48 c7 44 24 08 00 00 	movq   $0x0,0x8(%rsp)
  402ded:	00 00 
  402def:	66 c7 04 24 02 00    	movw   $0x2,(%rsp)
  402df5:	48 63 50 14          	movslq 0x14(%rax),%rdx
  402df9:	48 8b 40 18          	mov    0x18(%rax),%rax
  402dfd:	48 8b 30             	mov    (%rax),%rsi
  402e00:	48 8d 7c 24 04       	lea    0x4(%rsp),%rdi
  402e05:	b9 0c 00 00 00       	mov    $0xc,%ecx
  402e0a:	e8 71 df ff ff       	callq  400d80 <__memmove_chk@plt>
  402e0f:	66 c7 44 24 02 3c 9a 	movw   $0x9a3c,0x2(%rsp)
  402e16:	ba 10 00 00 00       	mov    $0x10,%edx
  402e1b:	48 89 e6             	mov    %rsp,%rsi
  402e1e:	89 df                	mov    %ebx,%edi
  402e20:	e8 3b e0 ff ff       	callq  400e60 <connect@plt>
  402e25:	85 c0                	test   %eax,%eax
  402e27:	79 50                	jns    402e79 <init_driver+0x1c1>
  402e29:	48 b8 45 72 72 6f 72 	movabs $0x55203a726f727245,%rax
  402e30:	3a 20 55 
  402e33:	48 89 45 00          	mov    %rax,0x0(%rbp)
  402e37:	48 b8 6e 61 62 6c 65 	movabs $0x6f7420656c62616e,%rax
  402e3e:	20 74 6f 
  402e41:	48 89 45 08          	mov    %rax,0x8(%rbp)
  402e45:	48 b8 20 63 6f 6e 6e 	movabs $0x7463656e6e6f6320,%rax
  402e4c:	65 63 74 
  402e4f:	48 89 45 10          	mov    %rax,0x10(%rbp)
  402e53:	48 b8 20 74 6f 20 73 	movabs $0x76726573206f7420,%rax
  402e5a:	65 72 76 
  402e5d:	48 89 45 18          	mov    %rax,0x18(%rbp)
  402e61:	66 c7 45 20 65 72    	movw   $0x7265,0x20(%rbp)
  402e67:	c6 45 22 00          	movb   $0x0,0x22(%rbp)
  402e6b:	89 df                	mov    %ebx,%edi
  402e6d:	e8 be de ff ff       	callq  400d30 <close@plt>
  402e72:	b8 ff ff ff ff       	mov    $0xffffffff,%eax
  402e77:	eb 16                	jmp    402e8f <init_driver+0x1d7>
  402e79:	89 df                	mov    %ebx,%edi
  402e7b:	e8 b0 de ff ff       	callq  400d30 <close@plt>
  402e80:	66 c7 45 00 4f 4b    	movw   $0x4b4f,0x0(%rbp)
  402e86:	c6 45 02 00          	movb   $0x0,0x2(%rbp)
  402e8a:	b8 00 00 00 00       	mov    $0x0,%eax
  402e8f:	48 8b 4c 24 18       	mov    0x18(%rsp),%rcx
  402e94:	64 48 33 0c 25 28 00 	xor    %fs:0x28,%rcx
  402e9b:	00 00 
  402e9d:	74 05                	je     402ea4 <init_driver+0x1ec>
  402e9f:	e8 4c de ff ff       	callq  400cf0 <__stack_chk_fail@plt>
  402ea4:	48 83 c4 28          	add    $0x28,%rsp
  402ea8:	5b                   	pop    %rbx
  402ea9:	5d                   	pop    %rbp
  402eaa:	c3                   	retq   

0000000000402eab <driver_post>:
  402eab:	53                   	push   %rbx
  402eac:	4c 89 cb             	mov    %r9,%rbx
  402eaf:	45 85 c0             	test   %r8d,%r8d
  402eb2:	74 27                	je     402edb <driver_post+0x30>
  402eb4:	48 89 ca             	mov    %rcx,%rdx
  402eb7:	be 7a 39 40 00       	mov    $0x40397a,%esi
  402ebc:	bf 01 00 00 00       	mov    $0x1,%edi
  402ec1:	b8 00 00 00 00       	mov    $0x0,%eax
  402ec6:	e8 35 df ff ff       	callq  400e00 <__printf_chk@plt>
  402ecb:	66 c7 03 4f 4b       	movw   $0x4b4f,(%rbx)
  402ed0:	c6 43 02 00          	movb   $0x0,0x2(%rbx)
  402ed4:	b8 00 00 00 00       	mov    $0x0,%eax
  402ed9:	eb 3f                	jmp    402f1a <driver_post+0x6f>
  402edb:	48 85 ff             	test   %rdi,%rdi
  402ede:	74 2c                	je     402f0c <driver_post+0x61>
  402ee0:	80 3f 00             	cmpb   $0x0,(%rdi)
  402ee3:	74 27                	je     402f0c <driver_post+0x61>
  402ee5:	48 83 ec 08          	sub    $0x8,%rsp
  402ee9:	41 51                	push   %r9
  402eeb:	49 89 c9             	mov    %rcx,%r9
  402eee:	49 89 d0             	mov    %rdx,%r8
  402ef1:	48 89 f9             	mov    %rdi,%rcx
  402ef4:	48 89 f2             	mov    %rsi,%rdx
  402ef7:	be 9a 3c 00 00       	mov    $0x3c9a,%esi
  402efc:	bf 65 39 40 00       	mov    $0x403965,%edi
  402f01:	e8 19 f6 ff ff       	callq  40251f <submitr>
  402f06:	48 83 c4 10          	add    $0x10,%rsp
  402f0a:	eb 0e                	jmp    402f1a <driver_post+0x6f>
  402f0c:	66 c7 03 4f 4b       	movw   $0x4b4f,(%rbx)
  402f11:	c6 43 02 00          	movb   $0x0,0x2(%rbx)
  402f15:	b8 00 00 00 00       	mov    $0x0,%eax
  402f1a:	5b                   	pop    %rbx
  402f1b:	c3                   	retq   

0000000000402f1c <check>:
  402f1c:	89 f8                	mov    %edi,%eax
  402f1e:	c1 e8 1c             	shr    $0x1c,%eax
  402f21:	85 c0                	test   %eax,%eax
  402f23:	74 1d                	je     402f42 <check+0x26>
  402f25:	b9 00 00 00 00       	mov    $0x0,%ecx
  402f2a:	eb 0b                	jmp    402f37 <check+0x1b>
  402f2c:	89 f8                	mov    %edi,%eax
  402f2e:	d3 e8                	shr    %cl,%eax
  402f30:	3c 0a                	cmp    $0xa,%al
  402f32:	74 14                	je     402f48 <check+0x2c>
  402f34:	83 c1 08             	add    $0x8,%ecx
  402f37:	83 f9 1f             	cmp    $0x1f,%ecx
  402f3a:	7e f0                	jle    402f2c <check+0x10>
  402f3c:	b8 01 00 00 00       	mov    $0x1,%eax
  402f41:	c3                   	retq   
  402f42:	b8 00 00 00 00       	mov    $0x0,%eax
  402f47:	c3                   	retq   
  402f48:	b8 00 00 00 00       	mov    $0x0,%eax
  402f4d:	c3                   	retq   

0000000000402f4e <gencookie>:
  402f4e:	53                   	push   %rbx
  402f4f:	83 c7 01             	add    $0x1,%edi
  402f52:	e8 49 dd ff ff       	callq  400ca0 <srandom@plt>
  402f57:	e8 64 de ff ff       	callq  400dc0 <random@plt>
  402f5c:	89 c3                	mov    %eax,%ebx
  402f5e:	89 c7                	mov    %eax,%edi
  402f60:	e8 b7 ff ff ff       	callq  402f1c <check>
  402f65:	85 c0                	test   %eax,%eax
  402f67:	74 ee                	je     402f57 <gencookie+0x9>
  402f69:	89 d8                	mov    %ebx,%eax
  402f6b:	5b                   	pop    %rbx
  402f6c:	c3                   	retq   
  402f6d:	0f 1f 00             	nopl   (%rax)

0000000000402f70 <__libc_csu_init>:
  402f70:	41 57                	push   %r15
  402f72:	41 56                	push   %r14
  402f74:	41 89 ff             	mov    %edi,%r15d
  402f77:	41 55                	push   %r13
  402f79:	41 54                	push   %r12
  402f7b:	4c 8d 25 8e 1e 20 00 	lea    0x201e8e(%rip),%r12        # 604e10 <__frame_dummy_init_array_entry>
  402f82:	55                   	push   %rbp
  402f83:	48 8d 2d 8e 1e 20 00 	lea    0x201e8e(%rip),%rbp        # 604e18 <__do_global_dtors_aux_fini_array_entry>
  402f8a:	53                   	push   %rbx
  402f8b:	49 89 f6             	mov    %rsi,%r14
  402f8e:	49 89 d5             	mov    %rdx,%r13
  402f91:	4c 29 e5             	sub    %r12,%rbp
  402f94:	48 83 ec 08          	sub    $0x8,%rsp
  402f98:	48 c1 fd 03          	sar    $0x3,%rbp
  402f9c:	e8 a7 dc ff ff       	callq  400c48 <_init>
  402fa1:	48 85 ed             	test   %rbp,%rbp
  402fa4:	74 20                	je     402fc6 <__libc_csu_init+0x56>
  402fa6:	31 db                	xor    %ebx,%ebx
  402fa8:	0f 1f 84 00 00 00 00 	nopl   0x0(%rax,%rax,1)
  402faf:	00 
  402fb0:	4c 89 ea             	mov    %r13,%rdx
  402fb3:	4c 89 f6             	mov    %r14,%rsi
  402fb6:	44 89 ff             	mov    %r15d,%edi
  402fb9:	41 ff 14 dc          	callq  *(%r12,%rbx,8)
  402fbd:	48 83 c3 01          	add    $0x1,%rbx
  402fc1:	48 39 eb             	cmp    %rbp,%rbx
  402fc4:	75 ea                	jne    402fb0 <__libc_csu_init+0x40>
  402fc6:	48 83 c4 08          	add    $0x8,%rsp
  402fca:	5b                   	pop    %rbx
  402fcb:	5d                   	pop    %rbp
  402fcc:	41 5c                	pop    %r12
  402fce:	41 5d                	pop    %r13
  402fd0:	41 5e                	pop    %r14
  402fd2:	41 5f                	pop    %r15
  402fd4:	c3                   	retq   
  402fd5:	90                   	nop
  402fd6:	66 2e 0f 1f 84 00 00 	nopw   %cs:0x0(%rax,%rax,1)
  402fdd:	00 00 00 

0000000000402fe0 <__libc_csu_fini>:
  402fe0:	f3 c3                	repz retq 

Disassembly of section .fini:

0000000000402fe4 <_fini>:
  402fe4:	48 83 ec 08          	sub    $0x8,%rsp
  402fe8:	48 83 c4 08          	add    $0x8,%rsp
  402fec:	c3                   	retq   
